(dp0
I0
(lp1
I1
aI2
aI3
aI4
aI5
aI6
aI7
aI8
aI10
aI11
aI12
aI13
aI17
aI19
aI21
aI31
asI1
(lp2
I0
aI2
aI3
aI7
aI13
aI17
aI19
aI21
aI30
asI2
(lp3
I0
aI1
aI3
aI7
aI8
aI9
aI13
aI27
aI28
aI32
asI3
(lp4
I0
aI1
aI2
aI7
aI12
aI13
asI4
(lp5
I0
aI6
aI10
asI5
(lp6
I0
aI6
aI10
aI16
asI6
(lp7
I0
aI4
aI5
aI16
asI7
(lp8
I0
aI1
aI2
aI3
asI8
(lp9
I0
aI2
aI30
aI32
aI33
asI9
(lp10
I2
aI33
asI10
(lp11
I0
aI4
aI5
asI11
(lp12
I0
asI12
(lp13
I0
aI3
asI13
(lp14
I0
aI1
aI2
aI3
aI33
asI14
(lp15
I32
aI33
asI15
(lp16
I32
aI33
asI16
(lp17
I5
aI6
asI17
(lp18
I0
aI1
asI18
(lp19
I32
aI33
asI19
(lp20
I0
aI1
aI33
asI20
(lp21
I32
aI33
asI21
(lp22
I0
aI1
asI22
(lp23
I32
aI33
asI23
(lp24
I25
aI27
aI29
aI32
aI33
asI24
(lp25
I25
aI27
aI31
asI25
(lp26
I23
aI24
aI31
asI26
(lp27
I29
aI33
asI27
(lp28
I2
aI23
aI24
aI33
asI28
(lp29
I2
aI31
aI33
asI29
(lp30
I23
aI26
aI32
aI33
asI30
(lp31
I1
aI8
aI32
aI33
asI31
(lp32
I0
aI24
aI25
aI28
aI32
aI33
asI32
(lp33
I2
aI8
aI14
aI15
aI18
aI20
aI22
aI23
aI29
aI30
aI31
aI33
asI33
(lp34
I8
aI9
aI13
aI14
aI15
aI18
aI19
aI20
aI22
aI23
aI26
aI27
aI28
aI29
aI30
aI31
aI32
as.