(dp0
I0
(lp1
I1
aI4
aI8
aI11
aI12
aI24
aI27
aI36
aI43
aI56
aI61
aI68
aI69
aI77
aI80
aI84
aI87
aI110
aI120
aI131
aI163
aI181
aI233
aI286
aI290
aI406
aI438
aI469
aI582
aI617
aI635
aI686
aI715
aI720
aI745
aI780
aI789
aI790
aI808
aI820
aI874
aI883
aI889
aI906
aI972
aI1043
aI1055
aI1096
aI1169
aI1245
aI1351
aI1423
aI1431
aI1460
aI1534
asI1
(lp2
I0
aI2
aI3
aI16
aI21
aI31
aI34
aI35
aI38
aI63
aI96
aI117
aI169
aI175
aI212
aI228
aI334
aI355
aI356
aI374
aI382
aI387
aI402
aI444
aI632
aI716
aI752
aI791
aI807
aI855
aI928
aI938
aI996
aI1060
aI1120
aI1253
aI1370
aI1424
aI1597
asI2
(lp3
I1
aI7
aI37
aI75
aI98
aI180
aI348
aI377
aI428
aI442
aI501
aI539
aI956
aI1524
aI1688
asI3
(lp4
I1
aI146
aI389
aI950
aI1509
asI4
(lp5
I0
aI5
aI10
aI13
aI14
aI19
aI20
aI22
aI26
aI39
aI40
aI44
aI60
aI73
aI86
aI104
aI111
aI118
aI123
aI154
aI159
aI161
aI174
aI177
aI196
aI197
aI206
aI225
aI242
aI254
aI259
aI261
aI264
aI309
aI316
aI317
aI392
aI405
aI410
aI436
aI455
aI465
aI473
aI475
aI510
aI518
aI536
aI551
aI569
aI637
aI644
aI702
aI733
aI734
aI749
aI763
aI775
aI794
aI815
aI839
aI867
aI903
aI930
aI951
aI987
aI1118
aI1125
aI1156
aI1162
aI1177
aI1183
aI1214
aI1230
aI1292
aI1314
aI1363
aI1371
aI1385
aI1432
aI1488
aI1531
aI1549
aI1550
aI1570
aI1647
aI1681
asI5
(lp6
I4
aI6
aI18
aI162
aI366
aI413
aI504
asI6
(lp7
I5
aI46
aI65
aI232
aI269
aI396
aI464
aI740
aI1041
aI1054
aI1213
aI1216
asI7
(lp8
I2
aI9
aI17
aI116
aI121
aI138
aI143
aI155
aI217
aI272
aI283
aI302
aI344
aI379
aI503
aI530
aI700
aI795
aI822
aI829
aI911
aI943
aI1129
aI1167
aI1258
aI1265
aI1398
aI1633
aI1653
aI1671
asI8
(lp9
I0
aI340
aI525
aI572
asI9
(lp10
I7
asI10
(lp11
I4
aI15
aI50
aI128
aI229
aI244
aI367
aI435
aI560
aI761
aI765
aI782
aI1095
aI1286
asI11
(lp12
I0
asI12
(lp13
I0
aI28
aI30
aI41
aI42
aI62
aI76
aI82
aI127
aI277
aI347
aI538
aI545
aI645
aI712
aI713
aI743
aI953
aI997
aI1053
aI1390
aI1448
asI13
(lp14
I4
aI29
aI32
aI173
aI238
aI319
aI629
aI849
aI901
aI1113
aI1149
aI1244
aI1510
aI1677
asI14
(lp15
I4
aI57
aI85
aI826
aI1015
asI15
(lp16
I10
aI49
aI52
aI59
aI90
aI100
aI298
aI330
aI337
aI360
aI393
aI515
aI556
aI589
aI598
aI672
aI677
aI701
aI888
aI892
aI899
aI962
aI979
aI1023
aI1045
aI1072
aI1100
aI1246
aI1540
aI1670
asI16
(lp17
I1
aI373
aI1354
asI17
(lp18
I7
aI88
aI119
aI331
aI804
aI925
aI1061
aI1685
asI18
(lp19
I5
aI202
aI295
aI1611
asI19
(lp20
I4
aI427
aI671
aI697
aI1027
asI20
(lp21
I4
aI78
aI93
aI106
aI109
aI124
aI150
aI164
aI200
aI224
aI278
aI312
aI352
aI446
aI448
aI459
aI480
aI568
aI601
aI675
aI746
aI770
aI1021
aI1268
aI1434
aI1567
aI1572
aI1687
asI21
(lp22
I1
asI22
(lp23
I4
aI23
aI25
aI48
aI148
aI204
aI209
aI255
aI658
aI710
aI730
aI1277
asI23
(lp24
I22
aI1322
asI24
(lp25
I0
aI33
aI51
aI55
aI99
aI156
aI207
aI1228
aI1426
aI1539
asI25
(lp26
I22
asI26
(lp27
I4
aI58
aI89
aI102
aI137
aI144
aI152
aI1051
aI1373
aI1422
asI27
(lp28
I0
aI135
aI153
aI243
aI528
asI28
(lp29
I12
aI45
aI108
aI165
aI343
aI457
aI577
aI691
asI29
(lp30
I13
asI30
(lp31
I12
aI824
aI1006
aI1025
aI1152
aI1407
aI1573
asI31
(lp32
I1
aI133
aI171
aI186
aI364
aI397
aI404
aI493
aI519
aI584
aI649
aI693
aI1206
aI1528
aI1662
asI32
(lp33
I13
asI33
(lp34
I24
aI258
asI34
(lp35
I1
aI47
aI54
aI129
aI130
aI145
aI167
aI231
aI935
aI1170
aI1473
aI1553
asI35
(lp36
I1
aI273
aI276
aI516
aI819
aI929
aI998
aI1124
aI1168
aI1458
asI36
(lp37
I0
aI178
aI222
aI279
aI434
aI463
aI774
aI1321
aI1580
asI37
(lp38
I2
aI147
aI260
aI354
aI357
aI535
aI619
aI1087
aI1336
aI1350
aI1463
asI38
(lp39
I1
aI378
aI494
aI1046
aI1097
asI39
(lp40
I4
aI83
aI105
aI107
aI205
aI274
aI583
asI40
(lp41
I4
asI41
(lp42
I12
aI179
aI321
asI42
(lp43
I12
aI95
aI221
aI257
aI620
aI1655
asI43
(lp44
I0
aI240
aI1575
asI44
(lp45
I4
aI390
asI45
(lp46
I28
aI53
aI235
aI306
aI361
aI517
aI607
aI757
aI772
aI1279
asI46
(lp47
I6
aI363
aI983
aI1306
asI47
(lp48
I34
aI184
aI332
aI1644
aI1652
asI48
(lp49
I22
aI64
aI71
aI74
aI81
aI94
aI112
aI218
aI407
aI439
aI492
aI724
aI834
aI851
aI904
aI909
aI1077
aI1107
aI1141
aI1143
aI1242
aI1334
aI1352
aI1380
aI1427
aI1630
asI49
(lp50
I15
asI50
(lp51
I10
aI66
aI67
aI211
aI651
aI656
aI725
aI1172
aI1596
asI51
(lp52
I24
aI136
aI871
asI52
(lp53
I15
aI223
aI597
aI610
asI53
(lp54
I45
aI1478
asI54
(lp55
I34
aI91
aI97
aI151
aI213
aI263
aI574
aI628
aI652
aI705
aI825
asI55
(lp56
I24
aI1664
asI56
(lp57
I0
aI172
aI1588
asI57
(lp58
I14
aI1256
asI58
(lp59
I26
aI324
aI328
aI383
aI421
aI1481
asI59
(lp60
I15
aI79
aI201
aI313
aI365
aI554
aI564
aI947
aI1093
aI1310
aI1562
asI60
(lp61
I4
asI61
(lp62
I0
asI62
(lp63
I12
asI63
(lp64
I1
asI64
(lp65
I48
aI220
aI553
aI612
asI65
(lp66
I6
aI70
aI329
aI384
aI576
aI897
aI1182
aI1189
asI66
(lp67
I50
aI72
aI199
aI1181
asI67
(lp68
I50
aI280
aI1386
aI1682
asI68
(lp69
I0
asI69
(lp70
I0
aI368
aI793
asI70
(lp71
I65
aI919
asI71
(lp72
I48
aI198
aI864
asI72
(lp73
I66
aI346
asI73
(lp74
I4
aI349
aI548
aI1536
asI74
(lp75
I48
aI308
aI507
aI1161
asI75
(lp76
I2
aI115
aI296
aI327
aI477
aI678
aI916
aI1171
aI1442
asI76
(lp77
I12
asI77
(lp78
I0
aI563
asI78
(lp79
I20
aI859
asI79
(lp80
I59
aI103
aI125
aI168
aI226
aI284
aI532
aI844
aI1085
aI1151
asI80
(lp81
I0
aI667
aI873
aI963
aI1121
aI1454
asI81
(lp82
I48
aI92
aI158
aI182
aI215
aI219
aI318
aI320
aI541
aI663
aI692
aI1064
aI1225
aI1516
aI1551
asI82
(lp83
I12
aI353
aI497
aI866
aI1330
aI1379
asI83
(lp84
I39
aI293
aI900
aI1642
asI84
(lp85
I0
asI85
(lp86
I14
aI415
aI1193
asI86
(lp87
I4
aI126
aI185
aI253
aI915
aI1000
aI1022
aI1032
aI1450
asI87
(lp88
I0
aI101
aI122
aI359
aI370
aI634
aI932
aI1034
asI88
(lp89
I17
asI89
(lp90
I26
aI599
aI952
asI90
(lp91
I15
asI91
(lp92
I54
aI304
aI1215
asI92
(lp93
I81
asI93
(lp94
I20
aI114
asI94
(lp95
I48
aI139
aI957
asI95
(lp96
I42
asI96
(lp97
I1
aI270
aI976
asI97
(lp98
I54
asI98
(lp99
I2
aI529
asI99
(lp100
I24
asI100
(lp101
I15
aI292
asI101
(lp102
I87
asI102
(lp103
I26
aI134
aI613
aI751
asI103
(lp104
I79
aI451
asI104
(lp105
I4
aI141
asI105
(lp106
I39
aI183
aI248
aI380
aI416
aI431
aI544
aI723
aI1312
aI1571
aI1576
asI106
(lp107
I20
asI107
(lp108
I39
aI132
aI256
aI1236
asI108
(lp109
I28
aI160
aI350
aI1273
asI109
(lp110
I20
aI1146
asI110
(lp111
I0
aI944
aI1308
aI1563
asI111
(lp112
I4
aI190
aI237
aI391
aI486
asI112
(lp113
I48
aI113
aI140
aI496
aI546
aI668
aI758
aI1239
asI113
(lp114
I112
aI234
aI1609
asI114
(lp115
I93
aI1059
asI115
(lp116
I75
aI149
aI623
aI1446
aI1566
asI116
(lp117
I7
aI1109
aI1367
aI1600
asI117
(lp118
I1
aI189
aI194
aI300
aI315
aI611
aI841
aI949
aI1119
aI1249
aI1275
aI1309
aI1374
asI118
(lp119
I4
aI142
aI305
aI484
aI491
aI769
aI1048
aI1122
aI1339
asI119
(lp120
I17
asI120
(lp121
I0
aI922
asI121
(lp122
I7
asI122
(lp123
I87
aI301
aI456
aI603
aI1241
aI1415
aI1421
aI1590
asI123
(lp124
I4
asI124
(lp125
I20
aI481
aI655
asI125
(lp126
I79
aI193
aI1165
asI126
(lp127
I86
aI195
aI756
asI127
(lp128
I12
aI249
aI310
aI388
aI642
aI1372
asI128
(lp129
I10
aI567
asI129
(lp130
I34
aI166
aI827
aI1479
asI130
(lp131
I34
aI449
aI688
asI131
(lp132
I0
aI288
aI375
aI717
aI1114
aI1329
aI1494
aI1660
asI132
(lp133
I107
asI133
(lp134
I31
asI134
(lp135
I102
aI246
asI135
(lp136
I27
asI136
(lp137
I51
aI369
aI853
aI920
asI137
(lp138
I26
aI176
aI606
aI800
aI1094
aI1185
aI1223
aI1226
asI138
(lp139
I7
aI422
aI558
asI139
(lp140
I94
aI157
aI267
aI322
aI419
aI437
aI542
aI550
aI575
aI593
aI618
aI657
aI1011
aI1190
aI1240
aI1637
asI140
(lp141
I112
aI282
aI641
aI875
asI141
(lp142
I104
aI358
aI1204
asI142
(lp143
I118
asI143
(lp144
I7
aI170
aI1205
aI1317
asI144
(lp145
I26
asI145
(lp146
I34
asI146
(lp147
I3
asI147
(lp148
I37
asI148
(lp149
I22
aI281
aI579
aI1498
aI1598
asI149
(lp150
I115
aI450
aI1153
aI1579
asI150
(lp151
I20
aI285
aI1056
aI1247
asI151
(lp152
I54
aI499
aI766
aI1026
asI152
(lp153
I26
aI371
aI520
aI843
aI1668
asI153
(lp154
I27
aI227
aI489
aI978
aI1019
aI1276
asI154
(lp155
I4
aI918
aI933
aI1623
aI1672
aI1691
asI155
(lp156
I7
asI156
(lp157
I24
aI287
aI299
aI401
aI588
aI1324
asI157
(lp158
I139
aI1387
asI158
(lp159
I81
aI614
asI159
(lp160
I4
aI453
aI506
aI664
aI1203
aI1696
asI160
(lp161
I108
asI161
(lp162
I4
aI345
asI162
(lp163
I5
aI779
asI163
(lp164
I0
asI164
(lp165
I20
asI165
(lp166
I28
aI191
aI203
aI208
aI230
aI482
aI487
aI557
aI679
aI703
aI1008
aI1103
aI1166
aI1175
aI1266
aI1530
aI1593
aI1603
asI166
(lp167
I129
aI595
asI167
(lp168
I34
aI271
aI590
aI1024
aI1176
asI168
(lp169
I79
aI942
aI965
aI1004
asI169
(lp170
I1
aI247
aI262
aI430
aI509
aI633
aI1555
asI170
(lp171
I143
aI467
asI171
(lp172
I31
aI587
aI1066
aI1335
asI172
(lp173
I56
aI210
asI173
(lp174
I13
asI174
(lp175
I4
asI175
(lp176
I1
asI176
(lp177
I137
aI245
aI908
asI177
(lp178
I4
aI846
asI178
(lp179
I36
asI179
(lp180
I41
aI462
aI737
asI180
(lp181
I2
aI291
aI1191
asI181
(lp182
I0
aI1639
asI182
(lp183
I81
asI183
(lp184
I105
aI1163
aI1212
asI184
(lp185
I47
aI187
aI188
aI192
aI214
aI426
aI760
aI858
aI954
aI1199
aI1548
asI185
(lp186
I86
aI543
aI1132
asI186
(lp187
I31
aI1445
asI187
(lp188
I184
asI188
(lp189
I184
asI189
(lp190
I117
aI1233
aI1513
asI190
(lp191
I111
aI573
asI191
(lp192
I165
aI399
aI443
aI921
aI1678
asI192
(lp193
I184
aI838
asI193
(lp194
I125
aI753
aI887
aI975
aI1260
aI1629
asI194
(lp195
I117
asI195
(lp196
I126
aI522
aI547
aI608
aI744
aI1091
aI1313
aI1345
aI1501
asI196
(lp197
I4
aI289
aI323
aI335
aI385
aI578
aI974
aI981
aI1326
asI197
(lp198
I4
aI409
aI476
aI704
aI706
aI970
aI1186
aI1519
asI198
(lp199
I71
asI199
(lp200
I66
aI266
aI878
aI1086
asI200
(lp201
I20
aI1198
aI1492
asI201
(lp202
I59
aI216
aI252
aI314
aI418
aI1583
aI1695
asI202
(lp203
I18
aI1316
aI1645
asI203
(lp204
I165
aI420
aI1272
aI1300
asI204
(lp205
I22
aI417
aI674
asI205
(lp206
I39
asI206
(lp207
I4
aI239
asI207
(lp208
I24
aI251
asI208
(lp209
I165
aI1180
aI1270
aI1419
aI1632
asI209
(lp210
I22
aI721
asI210
(lp211
I172
aI250
aI1441
asI211
(lp212
I50
aI265
aI880
aI1201
asI212
(lp213
I1
aI631
aI788
aI1337
aI1526
asI213
(lp214
I54
asI214
(lp215
I184
asI215
(lp216
I81
asI216
(lp217
I201
aI362
aI414
aI862
aI885
aI1358
asI217
(lp218
I7
asI218
(lp219
I48
aI727
aI1039
asI219
(lp220
I81
aI411
asI220
(lp221
I64
aI615
asI221
(lp222
I42
aI764
aI1231
asI222
(lp223
I36
aI394
asI223
(lp224
I52
aI303
aI311
aI326
aI508
aI742
asI224
(lp225
I20
asI225
(lp226
I4
asI226
(lp227
I79
aI236
aI241
aI268
aI336
aI398
aI471
aI479
aI685
aI778
aI1535
asI227
(lp228
I153
aI338
aI1289
aI1491
asI228
(lp229
I1
asI229
(lp230
I10
aI738
aI811
asI230
(lp231
I165
aI941
asI231
(lp232
I34
asI232
(lp233
I6
asI233
(lp234
I0
asI234
(lp235
I113
aI294
aI297
aI400
aI600
aI1659
asI235
(lp236
I45
aI351
asI236
(lp237
I226
aI478
aI1299
asI237
(lp238
I111
aI821
asI238
(lp239
I13
asI239
(lp240
I206
aI1293
asI240
(lp241
I43
aI1278
asI241
(lp242
I226
asI242
(lp243
I4
aI1160
aI1361
asI243
(lp244
I27
aI1238
asI244
(lp245
I10
asI245
(lp246
I176
aI513
asI246
(lp247
I134
asI247
(lp248
I169
aI342
asI248
(lp249
I105
aI999
aI1294
aI1482
asI249
(lp250
I127
asI250
(lp251
I210
aI460
aI1229
aI1546
aI1651
asI251
(lp252
I207
asI252
(lp253
I201
aI470
aI638
aI905
asI253
(lp254
I86
asI254
(lp255
I4
aI806
asI255
(lp256
I22
aI622
aI1014
aI1140
asI256
(lp257
I107
aI461
asI257
(lp258
I42
aI1625
asI258
(lp259
I33
aI333
aI1537
aI1698
asI259
(lp260
I4
asI260
(lp261
I37
asI261
(lp262
I4
aI781
asI262
(lp263
I169
aI604
aI1395
asI263
(lp264
I54
aI275
aI1115
asI264
(lp265
I4
aI625
aI669
aI1009
asI265
(lp266
I211
asI266
(lp267
I199
aI830
aI1197
asI267
(lp268
I139
asI268
(lp269
I226
aI1259
asI269
(lp270
I6
aI325
asI270
(lp271
I96
asI271
(lp272
I167
aI694
asI272
(lp273
I7
asI273
(lp274
I35
asI274
(lp275
I39
aI372
aI445
aI555
aI802
aI840
aI960
aI1150
aI1608
asI275
(lp276
I263
aI926
asI276
(lp277
I35
aI341
aI1128
asI277
(lp278
I12
aI1030
asI278
(lp279
I20
aI736
aI812
aI1504
asI279
(lp280
I36
asI280
(lp281
I67
asI281
(lp282
I148
aI565
aI787
aI1099
aI1281
asI282
(lp283
I140
asI283
(lp284
I7
aI616
aI627
asI284
(lp285
I79
aI307
aI376
aI913
aI973
aI1194
aI1338
asI285
(lp286
I150
aI381
aI533
aI537
aI964
asI286
(lp287
I0
aI696
aI1255
asI287
(lp288
I156
aI468
aI472
asI288
(lp289
I131
aI441
asI289
(lp290
I196
aI424
aI1179
asI290
(lp291
I0
asI291
(lp292
I180
aI429
aI1036
asI292
(lp293
I100
aI1088
asI293
(lp294
I83
asI294
(lp295
I234
asI295
(lp296
I18
asI296
(lp297
I75
asI297
(lp298
I234
aI1456
asI298
(lp299
I15
asI299
(lp300
I156
asI300
(lp301
I117
asI301
(lp302
I122
asI302
(lp303
I7
asI303
(lp304
I223
aI803
asI304
(lp305
I91
aI609
asI305
(lp306
I118
asI306
(lp307
I45
aI1318
aI1319
asI307
(lp308
I284
aI1605
asI308
(lp309
I74
asI309
(lp310
I4
asI310
(lp311
I127
aI709
aI809
asI311
(lp312
I223
aI412
aI485
aI939
aI948
aI1384
asI312
(lp313
I20
aI423
aI534
aI571
aI1269
aI1599
asI313
(lp314
I59
aI1443
asI314
(lp315
I201
asI315
(lp316
I117
asI316
(lp317
I4
asI317
(lp318
I4
aI636
aI801
aI1069
aI1480
asI318
(lp319
I81
asI319
(lp320
I13
asI320
(lp321
I81
asI321
(lp322
I41
asI322
(lp323
I139
aI1627
asI323
(lp324
I196
aI805
aI868
aI937
asI324
(lp325
I58
asI325
(lp326
I269
aI881
asI326
(lp327
I223
aI731
aI1145
asI327
(lp328
I75
aI339
aI1108
asI328
(lp329
I58
aI433
aI832
asI329
(lp330
I65
asI330
(lp331
I15
aI408
aI514
aI1439
asI331
(lp332
I17
aI594
asI332
(lp333
I47
aI1257
aI1346
aI1617
asI333
(lp334
I258
aI581
aI784
aI831
aI1116
aI1391
asI334
(lp335
I1
asI335
(lp336
I196
aI785
aI1457
aI1602
asI336
(lp337
I226
asI337
(lp338
I15
aI1487
aI1620
asI338
(lp339
I227
asI339
(lp340
I327
aI605
aI1020
asI340
(lp341
I8
aI879
aI992
asI341
(lp342
I276
asI342
(lp343
I247
aI495
aI527
aI741
asI343
(lp344
I28
asI344
(lp345
I7
aI754
aI1636
asI345
(lp346
I161
asI346
(lp347
I72
asI347
(lp348
I12
aI1554
asI348
(lp349
I2
aI1393
asI349
(lp350
I73
asI350
(lp351
I108
aI580
asI351
(lp352
I235
aI386
aI403
aI432
aI524
aI624
aI946
aI1520
aI1680
asI352
(lp353
I20
asI353
(lp354
I82
aI440
aI1348
asI354
(lp355
I37
asI355
(lp356
I1
asI356
(lp357
I1
aI585
asI357
(lp358
I37
aI626
aI1262
asI358
(lp359
I141
aI798
asI359
(lp360
I87
aI505
aI817
aI927
aI1042
aI1410
aI1453
aI1631
asI360
(lp361
I15
asI361
(lp362
I45
asI362
(lp363
I216
aI447
aI852
aI1560
asI363
(lp364
I46
aI1002
asI364
(lp365
I31
asI365
(lp366
I59
aI682
asI366
(lp367
I5
aI1574
asI367
(lp368
I10
aI719
asI368
(lp369
I69
aI425
aI562
aI661
aI1202
aI1302
asI369
(lp370
I136
aI500
asI370
(lp371
I87
aI1219
asI371
(lp372
I152
asI372
(lp373
I274
asI373
(lp374
I16
aI1222
aI1517
asI374
(lp375
I1
aI526
aI684
aI1062
aI1657
asI375
(lp376
I131
asI376
(lp377
I284
asI377
(lp378
I2
asI378
(lp379
I38
aI1188
asI379
(lp380
I7
asI380
(lp381
I105
asI381
(lp382
I285
asI382
(lp383
I1
asI383
(lp384
I58
asI384
(lp385
I65
asI385
(lp386
I196
aI488
aI646
aI857
aI1084
aI1192
asI386
(lp387
I351
aI1287
asI387
(lp388
I1
aI395
aI602
aI835
aI1001
asI388
(lp389
I127
asI389
(lp390
I3
aI454
aI591
aI673
aI1500
asI390
(lp391
I44
aI1440
asI391
(lp392
I111
aI474
aI540
aI1425
asI392
(lp393
I4
asI393
(lp394
I15
aI768
aI810
asI394
(lp395
I222
aI561
aI797
aI876
aI1595
aI1613
asI395
(lp396
I387
aI452
aI458
aI586
aI1017
aI1164
aI1211
aI1438
aI1522
aI1538
asI396
(lp397
I6
aI912
aI1556
asI397
(lp398
I31
asI398
(lp399
I226
aI531
aI1196
aI1650
asI399
(lp400
I191
aI566
aI739
aI813
aI924
aI1007
aI1033
aI1290
aI1469
asI400
(lp401
I234
asI401
(lp402
I156
aI1368
asI402
(lp403
I1
asI403
(lp404
I351
asI404
(lp405
I31
aI1643
asI405
(lp406
I4
asI406
(lp407
I0
aI502
aI690
aI1131
aI1506
asI407
(lp408
I48
aI490
aI773
aI1683
aI1690
asI408
(lp409
I330
aI512
aI1412
asI409
(lp410
I197
aI670
asI410
(lp411
I4
aI1029
aI1067
asI411
(lp412
I219
asI412
(lp413
I311
asI413
(lp414
I5
asI414
(lp415
I216
asI415
(lp416
I85
asI416
(lp417
I105
asI417
(lp418
I204
asI418
(lp419
I201
asI419
(lp420
I139
asI420
(lp421
I203
asI421
(lp422
I58
aI1323
aI1474
asI422
(lp423
I138
aI698
aI1521
asI423
(lp424
I312
aI1144
aI1234
aI1594
asI424
(lp425
I289
aI711
asI425
(lp426
I368
aI1589
asI426
(lp427
I184
aI718
aI1092
asI427
(lp428
I19
aI799
aI842
aI977
aI1557
asI428
(lp429
I2
asI429
(lp430
I291
asI430
(lp431
I169
asI431
(lp432
I105
asI432
(lp433
I351
asI433
(lp434
I328
aI910
aI984
aI1079
asI434
(lp435
I36
aI466
aI498
asI435
(lp436
I10
asI436
(lp437
I4
asI437
(lp438
I139
asI438
(lp439
I0
asI439
(lp440
I48
asI440
(lp441
I353
aI596
asI441
(lp442
I288
asI442
(lp443
I2
asI443
(lp444
I191
asI444
(lp445
I1
asI445
(lp446
I274
asI446
(lp447
I20
aI1320
asI447
(lp448
I362
aI1349
asI448
(lp449
I20
aI549
asI449
(lp450
I130
aI968
asI450
(lp451
I149
aI708
aI1618
asI451
(lp452
I103
asI452
(lp453
I395
aI1417
asI453
(lp454
I159
aI1663
asI454
(lp455
I389
asI455
(lp456
I4
aI792
aI1375
aI1533
asI456
(lp457
I122
asI457
(lp458
I28
aI483
aI552
aI748
aI895
aI1104
asI458
(lp459
I395
asI459
(lp460
I20
asI460
(lp461
I250
aI1673
asI461
(lp462
I256
asI462
(lp463
I179
asI463
(lp464
I36
aI1227
aI1674
asI464
(lp465
I6
aI707
aI940
aI1178
aI1328
asI465
(lp466
I4
aI818
aI861
aI1658
asI466
(lp467
I434
aI523
aI665
aI767
aI786
aI1291
aI1612
asI467
(lp468
I170
asI468
(lp469
I287
aI931
aI1628
asI469
(lp470
I0
aI1174
aI1237
asI470
(lp471
I252
aI1577
asI471
(lp472
I226
asI472
(lp473
I287
asI473
(lp474
I4
asI474
(lp475
I391
aI722
asI475
(lp476
I4
aI993
asI476
(lp477
I197
aI1080
aI1507
asI477
(lp478
I75
asI478
(lp479
I236
asI479
(lp480
I226
asI480
(lp481
I20
asI481
(lp482
I124
asI482
(lp483
I165
asI483
(lp484
I457
asI484
(lp485
I118
asI485
(lp486
I311
aI511
aI630
aI660
aI1656
asI486
(lp487
I111
aI689
aI893
aI1675
asI487
(lp488
I165
aI683
aI1359
asI488
(lp489
I385
asI489
(lp490
I153
aI1052
aI1307
asI490
(lp491
I407
asI491
(lp492
I118
asI492
(lp493
I48
aI1040
aI1552
asI493
(lp494
I31
aI1470
aI1496
asI494
(lp495
I38
aI896
asI495
(lp496
I342
aI1601
asI496
(lp497
I112
asI497
(lp498
I82
asI498
(lp499
I434
asI499
(lp500
I151
aI592
aI814
asI500
(lp501
I369
asI501
(lp502
I2
aI521
aI823
aI1402
asI502
(lp503
I406
asI503
(lp504
I7
aI1243
asI504
(lp505
I5
aI653
asI505
(lp506
I359
asI506
(lp507
I159
aI714
aI1353
aI1411
aI1545
aI1689
asI507
(lp508
I74
asI508
(lp509
I223
asI509
(lp510
I169
aI837
asI510
(lp511
I4
aI570
asI511
(lp512
I485
asI512
(lp513
I408
asI513
(lp514
I245
aI1184
aI1209
aI1341
aI1343
asI514
(lp515
I330
aI750
asI515
(lp516
I15
aI1403
asI516
(lp517
I35
asI517
(lp518
I45
asI518
(lp519
I4
aI884
asI519
(lp520
I31
aI1076
asI520
(lp521
I152
aI699
asI521
(lp522
I501
asI522
(lp523
I195
asI523
(lp524
I466
aI1376
asI524
(lp525
I351
aI934
aI1304
aI1455
asI525
(lp526
I8
aI621
aI654
aI865
asI526
(lp527
I374
asI527
(lp528
I342
asI528
(lp529
I27
aI559
asI529
(lp530
I98
aI1134
asI530
(lp531
I7
asI531
(lp532
I398
aI796
aI1037
aI1569
aI1591
asI532
(lp533
I79
aI1654
asI533
(lp534
I285
aI640
asI534
(lp535
I312
asI535
(lp536
I37
asI536
(lp537
I4
asI537
(lp538
I285
asI538
(lp539
I12
aI869
asI539
(lp540
I2
aI650
asI540
(lp541
I391
asI541
(lp542
I81
aI747
aI1005
asI542
(lp543
I139
aI1489
asI543
(lp544
I185
asI544
(lp545
I105
aI695
asI545
(lp546
I12
asI546
(lp547
I112
aI1529
asI547
(lp548
I195
aI1159
asI548
(lp549
I73
asI549
(lp550
I448
asI550
(lp551
I139
asI551
(lp552
I4
asI552
(lp553
I457
asI553
(lp554
I64
asI554
(lp555
I59
aI886
asI555
(lp556
I274
asI556
(lp557
I15
asI557
(lp558
I165
asI558
(lp559
I138
asI559
(lp560
I528
aI1452
asI560
(lp561
I10
asI561
(lp562
I394
asI562
(lp563
I368
asI563
(lp564
I77
asI564
(lp565
I59
asI565
(lp566
I281
aI659
aI1010
asI566
(lp567
I399
asI567
(lp568
I128
asI568
(lp569
I20
aI1331
asI569
(lp570
I4
aI676
asI570
(lp571
I510
asI571
(lp572
I312
aI1447
asI572
(lp573
I8
asI573
(lp574
I190
aI639
asI574
(lp575
I54
aI917
aI1126
aI1382
asI575
(lp576
I139
aI890
aI961
aI966
asI576
(lp577
I65
aI988
asI577
(lp578
I28
asI578
(lp579
I196
asI579
(lp580
I148
aI643
asI580
(lp581
I350
aI980
asI581
(lp582
I333
aI680
aI995
aI1035
aI1418
asI582
(lp583
I0
asI583
(lp584
I39
asI584
(lp585
I31
asI585
(lp586
I356
asI586
(lp587
I395
aI687
aI1111
aI1155
aI1676
asI587
(lp588
I171
aI856
asI588
(lp589
I156
asI589
(lp590
I15
asI590
(lp591
I167
asI591
(lp592
I389
aI1074
asI592
(lp593
I499
asI593
(lp594
I139
asI594
(lp595
I331
aI1075
aI1187
asI595
(lp596
I166
aI783
asI596
(lp597
I440
aI732
asI597
(lp598
I52
aI735
aI777
asI598
(lp599
I15
asI599
(lp600
I89
asI600
(lp601
I234
aI726
asI601
(lp602
I20
asI602
(lp603
I387
asI603
(lp604
I122
asI604
(lp605
I262
asI605
(lp606
I339
aI1499
asI606
(lp607
I137
asI607
(lp608
I45
asI608
(lp609
I195
asI609
(lp610
I304
asI610
(lp611
I52
asI611
(lp612
I117
aI1408
asI612
(lp613
I64
asI613
(lp614
I102
asI614
(lp615
I158
aI1013
aI1218
aI1342
aI1400
asI615
(lp616
I220
asI616
(lp617
I283
aI666
asI617
(lp618
I0
asI618
(lp619
I139
asI619
(lp620
I37
asI620
(lp621
I42
asI621
(lp622
I525
asI622
(lp623
I255
asI623
(lp624
I115
asI624
(lp625
I351
aI662
asI625
(lp626
I264
asI626
(lp627
I357
asI627
(lp628
I283
asI628
(lp629
I54
asI629
(lp630
I13
asI630
(lp631
I485
asI631
(lp632
I212
asI632
(lp633
I1
asI633
(lp634
I169
asI634
(lp635
I87
aI894
aI898
aI1284
aI1493
aI1564
asI635
(lp636
I0
asI636
(lp637
I317
asI637
(lp638
I4
asI638
(lp639
I252
aI648
aI872
aI1047
aI1263
aI1495
asI639
(lp640
I573
asI640
(lp641
I533
aI647
aI1514
asI641
(lp642
I140
asI642
(lp643
I127
aI729
aI762
aI959
aI982
aI1220
aI1525
aI1544
asI643
(lp644
I579
asI644
(lp645
I4
aI1158
asI645
(lp646
I12
asI646
(lp647
I385
asI647
(lp648
I640
aI681
asI648
(lp649
I638
asI649
(lp650
I31
aI1058
asI650
(lp651
I539
asI651
(lp652
I50
asI652
(lp653
I54
asI653
(lp654
I504
aI1503
asI654
(lp655
I525
asI655
(lp656
I124
aI1018
aI1396
asI656
(lp657
I50
asI657
(lp658
I139
aI854
aI1210
aI1558
asI658
(lp659
I22
asI659
(lp660
I565
asI660
(lp661
I485
aI1063
aI1355
asI661
(lp662
I368
asI662
(lp663
I624
aI755
asI663
(lp664
I81
asI664
(lp665
I159
asI665
(lp666
I466
asI666
(lp667
I616
asI667
(lp668
I80
asI668
(lp669
I112
asI669
(lp670
I264
aI1137
asI670
(lp671
I409
asI671
(lp672
I19
asI672
(lp673
I15
aI847
aI848
aI990
asI673
(lp674
I389
asI674
(lp675
I204
asI675
(lp676
I20
asI676
(lp677
I569
aI955
asI677
(lp678
I15
asI678
(lp679
I75
aI836
asI679
(lp680
I165
aI1565
asI680
(lp681
I581
aI771
asI681
(lp682
I647
aI1261
asI682
(lp683
I365
asI683
(lp684
I487
asI684
(lp685
I374
asI685
(lp686
I226
asI686
(lp687
I0
asI687
(lp688
I586
asI688
(lp689
I130
asI689
(lp690
I486
aI828
asI690
(lp691
I406
asI691
(lp692
I28
aI1699
asI692
(lp693
I81
aI863
asI693
(lp694
I31
asI694
(lp695
I271
aI860
asI695
(lp696
I544
asI696
(lp697
I286
aI936
asI697
(lp698
I19
asI698
(lp699
I422
asI699
(lp700
I520
asI700
(lp701
I7
aI1344
aI1381
asI701
(lp702
I15
asI702
(lp703
I4
asI703
(lp704
I165
aI958
aI1123
asI704
(lp705
I197
asI705
(lp706
I54
aI759
aI1634
asI706
(lp707
I197
aI1133
aI1459
asI707
(lp708
I464
aI945
asI708
(lp709
I450
asI709
(lp710
I310
asI710
(lp711
I22
aI986
asI711
(lp712
I424
asI712
(lp713
I12
asI713
(lp714
I12
aI1325
asI714
(lp715
I506
aI1082
aI1208
asI715
(lp716
I0
aI1527
asI716
(lp717
I1
aI1667
asI717
(lp718
I131
asI718
(lp719
I426
aI728
asI719
(lp720
I367
asI720
(lp721
I0
asI721
(lp722
I209
asI722
(lp723
I474
aI816
aI1098
asI723
(lp724
I105
aI870
asI724
(lp725
I48
asI725
(lp726
I50
asI726
(lp727
I600
asI727
(lp728
I218
asI728
(lp729
I718
aI1157
asI729
(lp730
I642
asI730
(lp731
I22
aI882
asI731
(lp732
I326
aI1130
asI732
(lp733
I596
aI1038
asI733
(lp734
I4
asI734
(lp735
I4
aI1333
asI735
(lp736
I597
asI736
(lp737
I278
asI737
(lp738
I179
aI776
aI1154
aI1449
asI738
(lp739
I229
aI1106
asI739
(lp740
I399
aI833
asI740
(lp741
I6
asI741
(lp742
I342
asI742
(lp743
I223
asI743
(lp744
I12
aI989
asI744
(lp745
I195
aI1285
aI1401
asI745
(lp746
I0
asI746
(lp747
I20
asI747
(lp748
I541
asI748
(lp749
I457
asI749
(lp750
I4
aI850
asI750
(lp751
I514
asI751
(lp752
I102
asI752
(lp753
I1
asI753
(lp754
I193
asI754
(lp755
I344
aI1430
asI755
(lp756
I662
asI756
(lp757
I126
aI877
asI757
(lp758
I45
asI758
(lp759
I112
asI759
(lp760
I705
asI760
(lp761
I184
asI761
(lp762
I10
aI1640
asI762
(lp763
I642
asI763
(lp764
I4
asI764
(lp765
I221
asI765
(lp766
I10
aI1136
asI766
(lp767
I151
aI1065
aI1068
aI1436
asI767
(lp768
I466
asI768
(lp769
I393
asI769
(lp770
I118
aI1465
asI770
(lp771
I20
asI771
(lp772
I680
asI772
(lp773
I45
asI773
(lp774
I407
asI774
(lp775
I36
aI1543
asI775
(lp776
I4
aI1012
asI776
(lp777
I737
asI777
(lp778
I597
asI778
(lp779
I226
asI779
(lp780
I162
aI1502
asI780
(lp781
I0
asI781
(lp782
I261
asI782
(lp783
I10
asI783
(lp784
I595
aI969
asI784
(lp785
I333
asI785
(lp786
I335
asI786
(lp787
I466
asI787
(lp788
I281
asI788
(lp789
I212
asI789
(lp790
I0
asI790
(lp791
I0
asI791
(lp792
I1
asI792
(lp793
I455
asI793
(lp794
I69
aI1476
asI794
(lp795
I4
asI795
(lp796
I7
asI796
(lp797
I531
asI797
(lp798
I394
asI798
(lp799
I358
asI799
(lp800
I427
asI800
(lp801
I137
aI1356
asI801
(lp802
I317
asI802
(lp803
I274
asI803
(lp804
I303
asI804
(lp805
I17
asI805
(lp806
I323
aI1303
asI806
(lp807
I254
asI807
(lp808
I1
asI808
(lp809
I0
aI891
asI809
(lp810
I310
asI810
(lp811
I393
asI811
(lp812
I229
asI812
(lp813
I278
asI813
(lp814
I399
aI994
aI1148
asI814
(lp815
I499
asI815
(lp816
I4
asI816
(lp817
I722
asI817
(lp818
I359
asI818
(lp819
I465
asI819
(lp820
I35
asI820
(lp821
I0
asI821
(lp822
I237
aI1003
asI822
(lp823
I7
aI971
asI823
(lp824
I501
asI824
(lp825
I30
asI825
(lp826
I54
aI1073
asI826
(lp827
I14
asI827
(lp828
I129
asI828
(lp829
I689
asI829
(lp830
I7
aI907
aI1568
asI830
(lp831
I266
aI1044
asI831
(lp832
I333
asI832
(lp833
I328
aI845
aI1486
aI1697
asI833
(lp834
I739
aI1248
asI834
(lp835
I48
aI1586
asI835
(lp836
I387
aI902
aI1089
asI836
(lp837
I678
asI837
(lp838
I509
aI1581
asI838
(lp839
I192
aI1078
asI839
(lp840
I4
asI840
(lp841
I274
aI1604
asI841
(lp842
I117
asI842
(lp843
I427
asI843
(lp844
I152
asI844
(lp845
I79
asI845
(lp846
I832
asI846
(lp847
I177
aI1282
asI847
(lp848
I672
aI967
asI848
(lp849
I672
asI849
(lp850
I13
aI1497
asI850
(lp851
I749
asI851
(lp852
I48
asI852
(lp853
I362
asI853
(lp854
I136
asI854
(lp855
I657
aI923
asI855
(lp856
I1
aI1295
asI856
(lp857
I587
asI857
(lp858
I385
asI858
(lp859
I184
asI859
(lp860
I78
asI860
(lp861
I694
aI1251
asI861
(lp862
I465
aI1332
asI862
(lp863
I216
asI863
(lp864
I692
asI864
(lp865
I71
asI865
(lp866
I525
asI866
(lp867
I82
aI1250
asI867
(lp868
I4
asI868
(lp869
I323
asI869
(lp870
I538
asI870
(lp871
I723
asI871
(lp872
I51
asI872
(lp873
I638
asI873
(lp874
I80
aI1394
asI874
(lp875
I0
asI875
(lp876
I140
aI1461
asI876
(lp877
I394
asI877
(lp878
I756
asI878
(lp879
I199
aI1624
asI879
(lp880
I340
asI880
(lp881
I211
aI1433
asI881
(lp882
I325
asI882
(lp883
I730
asI883
(lp884
I0
aI1101
aI1614
asI884
(lp885
I518
asI885
(lp886
I216
asI886
(lp887
I554
aI914
aI1105
asI887
(lp888
I193
asI888
(lp889
I15
asI889
(lp890
I0
asI890
(lp891
I575
asI891
(lp892
I808
asI892
(lp893
I15
asI893
(lp894
I486
asI894
(lp895
I634
asI895
(lp896
I457
aI1585
asI896
(lp897
I494
asI897
(lp898
I65
asI898
(lp899
I634
asI899
(lp900
I15
asI900
(lp901
I83
aI1057
asI901
(lp902
I13
asI902
(lp903
I835
asI903
(lp904
I4
aI1298
asI904
(lp905
I48
asI905
(lp906
I252
asI906
(lp907
I0
asI907
(lp908
I829
asI908
(lp909
I176
asI909
(lp910
I48
aI1414
asI910
(lp911
I433
aI1235
asI911
(lp912
I7
asI912
(lp913
I396
asI913
(lp914
I284
aI1649
asI914
(lp915
I886
asI915
(lp916
I86
asI916
(lp917
I75
asI917
(lp918
I574
asI918
(lp919
I154
asI919
(lp920
I70
asI920
(lp921
I136
aI1377
asI921
(lp922
I191
asI922
(lp923
I120
aI1468
asI923
(lp924
I854
aI985
asI924
(lp925
I399
asI925
(lp926
I17
asI926
(lp927
I275
asI927
(lp928
I359
aI1404
asI928
(lp929
I1
asI929
(lp930
I35
asI930
(lp931
I4
asI931
(lp932
I468
asI932
(lp933
I87
asI933
(lp934
I154
asI934
(lp935
I524
asI935
(lp936
I34
asI936
(lp937
I696
aI1110
asI937
(lp938
I323
aI1224
asI938
(lp939
I1
asI939
(lp940
I311
asI940
(lp941
I464
asI941
(lp942
I230
asI942
(lp943
I168
asI943
(lp944
I7
asI944
(lp945
I110
asI945
(lp946
I707
asI946
(lp947
I351
asI947
(lp948
I59
aI1297
asI948
(lp949
I311
asI949
(lp950
I117
asI950
(lp951
I3
asI951
(lp952
I4
asI952
(lp953
I89
aI1049
aI1142
aI1693
asI953
(lp954
I12
aI1619
asI954
(lp955
I184
aI1646
asI955
(lp956
I676
aI1173
aI1207
aI1420
aI1684
asI956
(lp957
I2
asI957
(lp958
I94
aI1090
aI1127
aI1665
asI958
(lp959
I703
asI959
(lp960
I642
aI991
aI1028
asI960
(lp961
I274
asI961
(lp962
I575
asI962
(lp963
I15
aI1016
asI963
(lp964
I80
asI964
(lp965
I285
asI965
(lp966
I168
aI1083
asI966
(lp967
I575
asI967
(lp968
I847
asI968
(lp969
I449
asI969
(lp970
I783
asI970
(lp971
I197
asI971
(lp972
I822
asI972
(lp973
I0
asI973
(lp974
I284
asI974
(lp975
I196
asI975
(lp976
I193
aI1117
asI976
(lp977
I96
aI1195
aI1472
aI1694
asI977
(lp978
I427
asI978
(lp979
I153
aI1362
asI979
(lp980
I15
asI980
(lp981
I580
aI1271
asI981
(lp982
I196
aI1327
aI1399
asI982
(lp983
I642
asI983
(lp984
I46
aI1102
asI984
(lp985
I433
asI985
(lp986
I923
asI986
(lp987
I710
aI1686
asI987
(lp988
I4
asI988
(lp989
I576
aI1357
aI1508
asI989
(lp990
I743
asI990
(lp991
I672
aI1547
asI991
(lp992
I959
asI992
(lp993
I340
asI993
(lp994
I475
asI994
(lp995
I813
aI1615
asI995
(lp996
I581
asI996
(lp997
I1
aI1692
asI997
(lp998
I12
asI998
(lp999
I35
aI1360
asI999
(lp1000
I248
asI1000
(lp1001
I86
asI1001
(lp1002
I387
asI1002
(lp1003
I363
aI1139
asI1003
(lp1004
I821
asI1004
(lp1005
I168
asI1005
(lp1006
I541
asI1006
(lp1007
I30
asI1007
(lp1008
I399
asI1008
(lp1009
I165
asI1009
(lp1010
I264
asI1010
(lp1011
I565
asI1011
(lp1012
I139
asI1012
(lp1013
I775
asI1013
(lp1014
I614
aI1050
asI1014
(lp1015
I255
asI1015
(lp1016
I14
asI1016
(lp1017
I962
asI1017
(lp1018
I395
aI1071
aI1217
asI1018
(lp1019
I655
asI1019
(lp1020
I153
asI1020
(lp1021
I339
aI1070
asI1021
(lp1022
I20
aI1031
aI1112
asI1022
(lp1023
I86
aI1288
asI1023
(lp1024
I15
asI1024
(lp1025
I167
asI1025
(lp1026
I30
asI1026
(lp1027
I151
asI1027
(lp1028
I19
asI1028
(lp1029
I959
aI1364
asI1029
(lp1030
I410
asI1030
(lp1031
I277
aI1311
asI1031
(lp1032
I1021
aI1626
asI1032
(lp1033
I86
aI1462
asI1033
(lp1034
I399
asI1034
(lp1035
I87
asI1035
(lp1036
I581
aI1467
asI1036
(lp1037
I291
asI1037
(lp1038
I531
asI1038
(lp1039
I732
asI1039
(lp1040
I218
asI1040
(lp1041
I492
asI1041
(lp1042
I6
asI1042
(lp1043
I359
asI1043
(lp1044
I0
asI1044
(lp1045
I830
asI1045
(lp1046
I15
asI1046
(lp1047
I38
asI1047
(lp1048
I638
asI1048
(lp1049
I118
aI1392
asI1049
(lp1050
I952
asI1050
(lp1051
I1013
asI1051
(lp1052
I26
asI1052
(lp1053
I489
asI1053
(lp1054
I12
asI1054
(lp1055
I6
asI1055
(lp1056
I0
asI1056
(lp1057
I150
aI1147
aI1264
aI1641
asI1057
(lp1058
I900
asI1058
(lp1059
I649
asI1059
(lp1060
I114
asI1060
(lp1061
I1
asI1061
(lp1062
I17
asI1062
(lp1063
I374
asI1063
(lp1064
I660
aI1135
asI1064
(lp1065
I81
asI1065
(lp1066
I766
aI1232
aI1622
asI1066
(lp1067
I171
aI1366
asI1067
(lp1068
I410
aI1388
asI1068
(lp1069
I766
asI1069
(lp1070
I317
asI1070
(lp1071
I1020
asI1071
(lp1072
I1017
asI1072
(lp1073
I15
asI1073
(lp1074
I825
asI1074
(lp1075
I591
asI1075
(lp1076
I594
aI1081
asI1076
(lp1077
I519
asI1077
(lp1078
I48
aI1138
aI1541
asI1078
(lp1079
I838
asI1079
(lp1080
I433
aI1437
asI1080
(lp1081
I476
asI1081
(lp1082
I1075
asI1082
(lp1083
I714
aI1296
asI1083
(lp1084
I965
asI1084
(lp1085
I385
asI1085
(lp1086
I79
asI1086
(lp1087
I199
aI1315
asI1087
(lp1088
I37
asI1088
(lp1089
I292
asI1089
(lp1090
I835
asI1090
(lp1091
I957
aI1669
asI1091
(lp1092
I195
asI1092
(lp1093
I426
asI1093
(lp1094
I59
asI1094
(lp1095
I137
asI1095
(lp1096
I10
asI1096
(lp1097
I0
asI1097
(lp1098
I38
asI1098
(lp1099
I722
asI1099
(lp1100
I281
asI1100
(lp1101
I15
aI1254
asI1101
(lp1102
I883
asI1102
(lp1103
I983
asI1103
(lp1104
I165
asI1104
(lp1105
I457
asI1105
(lp1106
I886
asI1106
(lp1107
I738
asI1107
(lp1108
I48
asI1108
(lp1109
I327
asI1109
(lp1110
I116
aI1409
asI1110
(lp1111
I936
asI1111
(lp1112
I586
asI1112
(lp1113
I1021
asI1113
(lp1114
I13
aI1252
asI1114
(lp1115
I131
asI1115
(lp1116
I263
asI1116
(lp1117
I333
asI1117
(lp1118
I975
asI1118
(lp1119
I4
asI1119
(lp1120
I117
asI1120
(lp1121
I1
asI1121
(lp1122
I80
aI1578
asI1122
(lp1123
I118
asI1123
(lp1124
I703
aI1610
asI1124
(lp1125
I35
aI1471
asI1125
(lp1126
I4
asI1126
(lp1127
I574
asI1127
(lp1128
I957
asI1128
(lp1129
I276
aI1582
aI1606
asI1129
(lp1130
I7
asI1130
(lp1131
I731
asI1131
(lp1132
I406
asI1132
(lp1133
I185
asI1133
(lp1134
I706
asI1134
(lp1135
I529
asI1135
(lp1136
I1063
asI1136
(lp1137
I765
aI1274
aI1559
asI1137
(lp1138
I669
asI1138
(lp1139
I1077
asI1139
(lp1140
I1002
asI1140
(lp1141
I255
asI1141
(lp1142
I48
asI1142
(lp1143
I952
asI1143
(lp1144
I48
asI1144
(lp1145
I423
asI1145
(lp1146
I326
asI1146
(lp1147
I109
aI1200
asI1147
(lp1148
I1056
asI1148
(lp1149
I813
asI1149
(lp1150
I13
asI1150
(lp1151
I274
aI1679
asI1151
(lp1152
I79
asI1152
(lp1153
I30
asI1153
(lp1154
I149
asI1154
(lp1155
I737
asI1155
(lp1156
I586
asI1156
(lp1157
I4
asI1157
(lp1158
I728
asI1158
(lp1159
I644
asI1159
(lp1160
I547
asI1160
(lp1161
I242
asI1161
(lp1162
I74
asI1162
(lp1163
I4
asI1163
(lp1164
I183
asI1164
(lp1165
I395
aI1475
asI1165
(lp1166
I125
asI1166
(lp1167
I165
asI1167
(lp1168
I7
asI1168
(lp1169
I35
asI1169
(lp1170
I0
asI1170
(lp1171
I34
asI1171
(lp1172
I75
asI1172
(lp1173
I50
asI1173
(lp1174
I955
asI1174
(lp1175
I469
asI1175
(lp1176
I165
asI1176
(lp1177
I167
asI1177
(lp1178
I4
aI1505
asI1178
(lp1179
I464
asI1179
(lp1180
I289
aI1383
asI1180
(lp1181
I208
asI1181
(lp1182
I66
asI1182
(lp1183
I65
aI1416
aI1512
asI1183
(lp1184
I4
aI1365
asI1184
(lp1185
I513
asI1185
(lp1186
I137
asI1186
(lp1187
I197
asI1187
(lp1188
I594
asI1188
(lp1189
I378
aI1280
aI1283
aI1406
asI1189
(lp1190
I65
asI1190
(lp1191
I139
aI1666
asI1191
(lp1192
I180
aI1490
asI1192
(lp1193
I385
asI1193
(lp1194
I85
aI1451
aI1484
asI1194
(lp1195
I284
asI1195
(lp1196
I976
aI1532
asI1196
(lp1197
I398
asI1197
(lp1198
I266
asI1198
(lp1199
I200
asI1199
(lp1200
I184
aI1267
aI1523
asI1200
(lp1201
I1146
asI1201
(lp1202
I211
asI1202
(lp1203
I368
asI1203
(lp1204
I159
asI1204
(lp1205
I141
asI1205
(lp1206
I143
asI1206
(lp1207
I31
asI1207
(lp1208
I955
aI1483
asI1208
(lp1209
I714
asI1209
(lp1210
I513
asI1210
(lp1211
I657
asI1211
(lp1212
I395
asI1212
(lp1213
I183
asI1213
(lp1214
I6
asI1214
(lp1215
I4
asI1215
(lp1216
I91
asI1216
(lp1217
I6
aI1221
asI1217
(lp1218
I1017
asI1218
(lp1219
I614
asI1219
(lp1220
I370
aI1301
asI1220
(lp1221
I642
asI1221
(lp1222
I1216
asI1222
(lp1223
I373
asI1223
(lp1224
I137
asI1224
(lp1225
I937
asI1225
(lp1226
I81
asI1226
(lp1227
I137
asI1227
(lp1228
I463
asI1228
(lp1229
I24
asI1229
(lp1230
I250
asI1230
(lp1231
I4
asI1231
(lp1232
I221
asI1232
(lp1233
I1065
asI1233
(lp1234
I189
asI1234
(lp1235
I423
asI1235
(lp1236
I910
asI1236
(lp1237
I107
asI1237
(lp1238
I469
asI1238
(lp1239
I243
asI1239
(lp1240
I112
asI1240
(lp1241
I139
asI1241
(lp1242
I122
asI1242
(lp1243
I48
asI1243
(lp1244
I503
asI1244
(lp1245
I13
asI1245
(lp1246
I0
asI1246
(lp1247
I15
asI1247
(lp1248
I150
aI1428
asI1248
(lp1249
I833
aI1511
asI1249
(lp1250
I117
asI1250
(lp1251
I866
asI1251
(lp1252
I860
asI1252
(lp1253
I1113
asI1253
(lp1254
I1
asI1254
(lp1255
I1100
asI1255
(lp1256
I286
asI1256
(lp1257
I57
asI1257
(lp1258
I332
aI1347
asI1258
(lp1259
I7
asI1259
(lp1260
I268
asI1260
(lp1261
I193
asI1261
(lp1262
I681
asI1262
(lp1263
I357
asI1263
(lp1264
I638
asI1264
(lp1265
I1056
asI1265
(lp1266
I7
asI1266
(lp1267
I165
asI1267
(lp1268
I1199
asI1268
(lp1269
I20
asI1269
(lp1270
I312
asI1270
(lp1271
I208
asI1271
(lp1272
I980
asI1272
(lp1273
I203
asI1273
(lp1274
I108
asI1274
(lp1275
I1136
asI1275
(lp1276
I117
asI1276
(lp1277
I153
asI1277
(lp1278
I22
asI1278
(lp1279
I240
asI1279
(lp1280
I45
asI1280
(lp1281
I1188
asI1281
(lp1282
I281
asI1282
(lp1283
I846
asI1283
(lp1284
I1188
asI1284
(lp1285
I634
aI1587
asI1285
(lp1286
I744
aI1477
asI1286
(lp1287
I10
aI1305
asI1287
(lp1288
I386
asI1288
(lp1289
I1022
asI1289
(lp1290
I227
asI1290
(lp1291
I399
asI1291
(lp1292
I466
asI1292
(lp1293
I4
asI1293
(lp1294
I239
asI1294
(lp1295
I248
asI1295
(lp1296
I855
aI1378
asI1296
(lp1297
I1082
asI1297
(lp1298
I947
asI1298
(lp1299
I903
aI1340
aI1369
asI1299
(lp1300
I236
asI1300
(lp1301
I203
aI1435
asI1301
(lp1302
I1219
asI1302
(lp1303
I368
asI1303
(lp1304
I805
asI1304
(lp1305
I524
asI1305
(lp1306
I1286
asI1306
(lp1307
I46
aI1444
asI1307
(lp1308
I489
asI1308
(lp1309
I110
asI1309
(lp1310
I117
asI1310
(lp1311
I59
asI1311
(lp1312
I1030
asI1312
(lp1313
I105
asI1313
(lp1314
I195
asI1314
(lp1315
I4
aI1485
asI1315
(lp1316
I1086
asI1316
(lp1317
I202
asI1317
(lp1318
I143
aI1389
asI1318
(lp1319
I306
asI1319
(lp1320
I306
asI1320
(lp1321
I446
aI1635
asI1321
(lp1322
I36
aI1429
asI1322
(lp1323
I23
asI1323
(lp1324
I421
asI1324
(lp1325
I156
asI1325
(lp1326
I713
asI1326
(lp1327
I196
asI1327
(lp1328
I981
asI1328
(lp1329
I464
asI1329
(lp1330
I131
asI1330
(lp1331
I82
asI1331
(lp1332
I568
asI1332
(lp1333
I861
asI1333
(lp1334
I734
asI1334
(lp1335
I48
asI1335
(lp1336
I171
asI1336
(lp1337
I37
asI1337
(lp1338
I212
asI1338
(lp1339
I284
aI1515
asI1339
(lp1340
I118
asI1340
(lp1341
I1298
asI1341
(lp1342
I513
asI1342
(lp1343
I614
aI1518
asI1343
(lp1344
I513
asI1344
(lp1345
I700
asI1345
(lp1346
I195
asI1346
(lp1347
I332
asI1347
(lp1348
I1257
aI1616
asI1348
(lp1349
I353
asI1349
(lp1350
I447
asI1350
(lp1351
I37
asI1351
(lp1352
I0
asI1352
(lp1353
I48
asI1353
(lp1354
I506
asI1354
(lp1355
I16
aI1397
aI1621
asI1355
(lp1356
I660
asI1356
(lp1357
I800
asI1357
(lp1358
I988
asI1358
(lp1359
I216
asI1359
(lp1360
I487
asI1360
(lp1361
I998
asI1361
(lp1362
I242
asI1362
(lp1363
I978
asI1363
(lp1364
I4
asI1364
(lp1365
I1028
asI1365
(lp1366
I1183
asI1366
(lp1367
I1066
asI1367
(lp1368
I116
asI1368
(lp1369
I401
asI1369
(lp1370
I1298
asI1370
(lp1371
I1
asI1371
(lp1372
I4
asI1372
(lp1373
I127
asI1373
(lp1374
I26
asI1374
(lp1375
I117
asI1375
(lp1376
I455
asI1376
(lp1377
I523
asI1377
(lp1378
I920
asI1378
(lp1379
I1295
asI1379
(lp1380
I82
asI1380
(lp1381
I48
aI1405
asI1381
(lp1382
I700
asI1382
(lp1383
I574
asI1383
(lp1384
I1179
asI1384
(lp1385
I311
asI1385
(lp1386
I4
asI1386
(lp1387
I67
aI1466
aI1584
asI1387
(lp1388
I157
aI1464
asI1388
(lp1389
I1067
asI1389
(lp1390
I1317
asI1390
(lp1391
I12
asI1391
(lp1392
I333
asI1392
(lp1393
I1048
asI1393
(lp1394
I348
asI1394
(lp1395
I873
asI1395
(lp1396
I262
asI1396
(lp1397
I655
aI1542
asI1397
(lp1398
I1354
asI1398
(lp1399
I7
aI1413
asI1399
(lp1400
I981
asI1400
(lp1401
I614
asI1401
(lp1402
I744
asI1402
(lp1403
I501
asI1403
(lp1404
I515
asI1404
(lp1405
I927
asI1405
(lp1406
I1380
asI1406
(lp1407
I1188
aI1607
asI1407
(lp1408
I30
aI1638
asI1408
(lp1409
I611
asI1409
(lp1410
I1109
asI1410
(lp1411
I359
asI1411
(lp1412
I506
asI1412
(lp1413
I408
asI1413
(lp1414
I1398
asI1414
(lp1415
I909
asI1415
(lp1416
I122
asI1416
(lp1417
I1182
asI1417
(lp1418
I452
asI1418
(lp1419
I581
asI1419
(lp1420
I208
asI1420
(lp1421
I955
asI1421
(lp1422
I122
asI1422
(lp1423
I26
aI1648
asI1423
(lp1424
I0
asI1424
(lp1425
I1
asI1425
(lp1426
I391
asI1426
(lp1427
I24
asI1427
(lp1428
I48
asI1428
(lp1429
I1247
asI1429
(lp1430
I1321
asI1430
(lp1431
I754
asI1431
(lp1432
I0
asI1432
(lp1433
I4
asI1433
(lp1434
I880
asI1434
(lp1435
I20
asI1435
(lp1436
I1300
asI1436
(lp1437
I766
asI1437
(lp1438
I1079
asI1438
(lp1439
I395
asI1439
(lp1440
I330
asI1440
(lp1441
I390
asI1441
(lp1442
I210
asI1442
(lp1443
I75
asI1443
(lp1444
I313
asI1444
(lp1445
I1306
asI1445
(lp1446
I186
asI1446
(lp1447
I115
asI1447
(lp1448
I571
asI1448
(lp1449
I12
asI1449
(lp1450
I737
asI1450
(lp1451
I86
asI1451
(lp1452
I1193
asI1452
(lp1453
I559
asI1453
(lp1454
I359
asI1454
(lp1455
I80
asI1455
(lp1456
I524
asI1456
(lp1457
I297
asI1457
(lp1458
I335
asI1458
(lp1459
I35
asI1459
(lp1460
I706
asI1460
(lp1461
I0
asI1461
(lp1462
I875
asI1462
(lp1463
I1032
asI1463
(lp1464
I37
asI1464
(lp1465
I1387
asI1465
(lp1466
I769
aI1592
asI1466
(lp1467
I1386
asI1467
(lp1468
I1035
asI1468
(lp1469
I922
asI1469
(lp1470
I399
asI1470
(lp1471
I493
asI1471
(lp1472
I1124
asI1472
(lp1473
I976
asI1473
(lp1474
I34
asI1474
(lp1475
I421
asI1475
(lp1476
I1164
asI1476
(lp1477
I793
asI1477
(lp1478
I1285
asI1478
(lp1479
I53
asI1479
(lp1480
I129
asI1480
(lp1481
I317
asI1481
(lp1482
I58
asI1482
(lp1483
I248
asI1483
(lp1484
I1207
asI1484
(lp1485
I1193
asI1485
(lp1486
I1314
asI1486
(lp1487
I832
asI1487
(lp1488
I337
asI1488
(lp1489
I4
asI1489
(lp1490
I542
asI1490
(lp1491
I1191
asI1491
(lp1492
I227
asI1492
(lp1493
I200
asI1493
(lp1494
I634
asI1494
(lp1495
I131
asI1495
(lp1496
I638
asI1496
(lp1497
I493
asI1497
(lp1498
I849
asI1498
(lp1499
I148
asI1499
(lp1500
I605
asI1500
(lp1501
I389
aI1561
asI1501
(lp1502
I195
asI1502
(lp1503
I779
asI1503
(lp1504
I653
asI1504
(lp1505
I278
asI1505
(lp1506
I1177
asI1506
(lp1507
I406
asI1507
(lp1508
I476
asI1508
(lp1509
I988
asI1509
(lp1510
I3
asI1510
(lp1511
I13
asI1511
(lp1512
I1248
asI1512
(lp1513
I1182
asI1513
(lp1514
I189
asI1514
(lp1515
I640
asI1515
(lp1516
I1338
aI1661
asI1516
(lp1517
I81
asI1517
(lp1518
I373
asI1518
(lp1519
I1342
asI1519
(lp1520
I197
asI1520
(lp1521
I351
asI1521
(lp1522
I422
asI1522
(lp1523
I395
asI1523
(lp1524
I1199
asI1524
(lp1525
I2
asI1525
(lp1526
I642
asI1526
(lp1527
I212
asI1527
(lp1528
I715
asI1528
(lp1529
I31
asI1529
(lp1530
I546
asI1530
(lp1531
I165
asI1531
(lp1532
I4
asI1532
(lp1533
I1195
asI1533
(lp1534
I455
asI1534
(lp1535
I0
asI1535
(lp1536
I226
asI1536
(lp1537
I73
asI1537
(lp1538
I258
asI1538
(lp1539
I395
asI1539
(lp1540
I24
asI1540
(lp1541
I15
asI1541
(lp1542
I1077
asI1542
(lp1543
I1396
asI1543
(lp1544
I774
asI1544
(lp1545
I642
asI1545
(lp1546
I506
asI1546
(lp1547
I250
asI1547
(lp1548
I990
asI1548
(lp1549
I184
asI1549
(lp1550
I4
asI1550
(lp1551
I4
asI1551
(lp1552
I81
asI1552
(lp1553
I492
asI1553
(lp1554
I34
asI1554
(lp1555
I347
asI1555
(lp1556
I169
asI1556
(lp1557
I396
asI1557
(lp1558
I427
asI1558
(lp1559
I657
asI1559
(lp1560
I1136
asI1560
(lp1561
I362
asI1561
(lp1562
I1500
asI1562
(lp1563
I59
asI1563
(lp1564
I110
asI1564
(lp1565
I634
asI1565
(lp1566
I679
asI1566
(lp1567
I115
asI1567
(lp1568
I20
asI1568
(lp1569
I829
asI1569
(lp1570
I531
asI1570
(lp1571
I4
asI1571
(lp1572
I105
asI1572
(lp1573
I20
asI1573
(lp1574
I30
asI1574
(lp1575
I366
asI1575
(lp1576
I43
asI1576
(lp1577
I105
asI1577
(lp1578
I470
asI1578
(lp1579
I1121
asI1579
(lp1580
I149
asI1580
(lp1581
I36
asI1581
(lp1582
I837
asI1582
(lp1583
I1128
asI1583
(lp1584
I201
asI1584
(lp1585
I1386
asI1585
(lp1586
I895
asI1586
(lp1587
I834
asI1587
(lp1588
I1284
asI1588
(lp1589
I56
asI1589
(lp1590
I425
asI1590
(lp1591
I122
asI1591
(lp1592
I531
asI1592
(lp1593
I1465
asI1593
(lp1594
I165
asI1594
(lp1595
I423
asI1595
(lp1596
I394
asI1596
(lp1597
I50
asI1597
(lp1598
I1
asI1598
(lp1599
I148
asI1599
(lp1600
I312
asI1600
(lp1601
I116
asI1601
(lp1602
I495
asI1602
(lp1603
I335
asI1603
(lp1604
I165
asI1604
(lp1605
I840
asI1605
(lp1606
I307
asI1606
(lp1607
I1128
asI1607
(lp1608
I1406
asI1608
(lp1609
I274
asI1609
(lp1610
I113
asI1610
(lp1611
I1123
asI1611
(lp1612
I18
asI1612
(lp1613
I466
asI1613
(lp1614
I394
asI1614
(lp1615
I883
asI1615
(lp1616
I994
asI1616
(lp1617
I1347
asI1617
(lp1618
I332
asI1618
(lp1619
I450
asI1619
(lp1620
I953
asI1620
(lp1621
I337
asI1621
(lp1622
I1354
asI1622
(lp1623
I1065
asI1623
(lp1624
I154
asI1624
(lp1625
I878
asI1625
(lp1626
I257
asI1626
(lp1627
I1031
asI1627
(lp1628
I322
asI1628
(lp1629
I468
asI1629
(lp1630
I193
asI1630
(lp1631
I48
asI1631
(lp1632
I359
asI1632
(lp1633
I208
asI1633
(lp1634
I7
asI1634
(lp1635
I705
asI1635
(lp1636
I1320
asI1636
(lp1637
I344
asI1637
(lp1638
I139
asI1638
(lp1639
I1407
asI1639
(lp1640
I181
asI1640
(lp1641
I761
asI1641
(lp1642
I1056
asI1642
(lp1643
I83
asI1643
(lp1644
I404
asI1644
(lp1645
I47
asI1645
(lp1646
I202
asI1646
(lp1647
I954
asI1647
(lp1648
I4
asI1648
(lp1649
I1422
asI1649
(lp1650
I913
asI1650
(lp1651
I398
asI1651
(lp1652
I250
asI1652
(lp1653
I47
asI1653
(lp1654
I7
asI1654
(lp1655
I532
asI1655
(lp1656
I42
asI1656
(lp1657
I485
asI1657
(lp1658
I374
asI1658
(lp1659
I465
asI1659
(lp1660
I234
asI1660
(lp1661
I131
asI1661
(lp1662
I1515
asI1662
(lp1663
I31
asI1663
(lp1664
I453
asI1664
(lp1665
I55
asI1665
(lp1666
I957
asI1666
(lp1667
I1190
asI1667
(lp1668
I716
asI1668
(lp1669
I152
asI1669
(lp1670
I1090
asI1670
(lp1671
I15
asI1671
(lp1672
I7
asI1672
(lp1673
I154
asI1673
(lp1674
I460
asI1674
(lp1675
I463
asI1675
(lp1676
I486
asI1676
(lp1677
I586
asI1677
(lp1678
I13
asI1678
(lp1679
I191
asI1679
(lp1680
I1150
asI1680
(lp1681
I351
asI1681
(lp1682
I4
asI1682
(lp1683
I67
asI1683
(lp1684
I407
asI1684
(lp1685
I955
asI1685
(lp1686
I17
asI1686
(lp1687
I986
asI1687
(lp1688
I20
asI1688
(lp1689
I2
asI1689
(lp1690
I506
asI1690
(lp1691
I407
asI1691
(lp1692
I154
asI1692
(lp1693
I996
asI1693
(lp1694
I952
asI1694
(lp1695
I976
asI1695
(lp1696
I201
asI1696
(lp1697
I159
asI1697
(lp1698
I832
asI1698
(lp1699
I258
asI1699
(lp1700
I691
as.