(dp0
I0
(lp1
I1
aI2
aI3
aI4
aI8
aI15
aI18
aI21
aI24
aI25
aI28
aI35
aI36
aI42
aI45
aI48
aI51
aI53
aI60
aI69
aI71
aI72
aI84
aI98
aI105
aI113
aI116
aI119
aI142
aI148
aI166
aI177
aI179
aI209
aI231
aI235
aI251
aI258
aI265
aI273
aI292
aI295
aI331
aI346
aI351
aI359
aI366
aI381
aI387
aI411
aI421
aI466
aI495
aI517
aI521
aI525
aI538
aI552
aI557
aI606
aI624
aI654
aI709
aI757
aI802
aI868
aI883
aI897
aI914
aI927
aI1001
aI1006
aI1062
aI1129
aI1179
aI1223
aI1265
aI1275
aI1289
aI1328
aI1407
aI1418
aI1468
aI1485
aI1494
aI1515
aI1524
aI1529
aI1583
aI1584
aI1618
aI1654
aI1658
aI1665
asI1
(lp2
I0
aI50
aI661
aI754
aI812
aI965
asI2
(lp3
I0
aI5
aI13
aI14
aI30
aI44
aI70
aI97
aI619
aI637
aI807
aI1240
aI1534
aI1572
asI3
(lp4
I0
aI34
aI115
aI232
aI254
aI285
aI294
aI338
aI405
aI407
aI568
aI627
aI663
aI671
aI876
aI1157
aI1192
aI1194
aI1349
aI1432
aI1628
aI1675
aI1682
asI4
(lp5
I0
aI52
aI55
aI99
aI206
aI548
aI947
asI5
(lp6
I2
aI6
aI7
aI9
aI31
aI40
aI41
aI66
aI85
aI86
aI95
aI133
aI138
aI174
aI175
aI187
aI189
aI288
aI289
aI522
aI607
aI713
aI732
aI848
aI937
aI1059
aI1220
aI1309
aI1392
aI1479
aI1604
asI6
(lp7
I5
aI151
aI316
aI733
aI764
aI1268
aI1497
asI7
(lp8
I5
aI32
aI39
aI112
aI194
aI410
aI464
aI1593
asI8
(lp9
I0
aI10
aI11
aI16
aI19
aI23
aI49
aI54
aI58
aI78
aI96
aI102
aI128
aI160
aI168
aI186
aI193
aI226
aI247
aI271
aI290
aI300
aI305
aI318
aI319
aI388
aI400
aI442
aI504
aI506
aI706
aI711
aI728
aI758
aI765
aI776
aI813
aI819
aI851
aI862
aI863
aI864
aI882
aI1140
aI1152
aI1219
aI1229
aI1266
aI1281
aI1352
aI1365
aI1414
aI1422
aI1433
aI1472
aI1475
aI1546
aI1585
aI1600
aI1610
aI1680
asI9
(lp10
I5
aI20
aI38
aI43
aI61
aI264
aI278
aI328
aI380
aI453
aI483
aI591
aI847
aI1279
aI1480
aI1619
aI1652
asI10
(lp11
I8
aI12
aI26
aI57
aI64
aI80
aI88
aI93
aI100
aI130
aI178
aI286
aI348
aI459
aI518
aI596
aI645
aI785
aI871
aI916
aI964
aI1011
aI1136
aI1450
asI11
(lp12
I8
aI27
aI587
aI942
aI1113
aI1409
asI12
(lp13
I10
aI122
aI144
aI180
aI221
aI222
aI225
aI229
aI320
aI332
aI342
aI481
aI578
aI629
aI683
aI831
aI869
aI1005
aI1088
aI1292
aI1644
asI13
(lp14
I2
aI29
aI213
aI397
aI597
aI766
asI14
(lp15
I2
aI149
aI208
aI402
asI15
(lp16
I0
aI37
asI16
(lp17
I8
aI17
aI77
aI110
aI558
aI830
aI922
aI1203
aI1214
aI1327
asI17
(lp18
I16
aI461
aI471
aI652
asI18
(lp19
I0
aI56
aI205
aI323
aI365
aI724
aI770
aI921
aI1057
aI1237
aI1283
aI1300
aI1389
aI1513
asI19
(lp20
I8
aI22
aI81
aI156
aI170
aI363
aI434
aI491
aI1235
asI20
(lp21
I9
aI605
asI21
(lp22
I0
aI63
aI1659
asI22
(lp23
I19
aI245
aI281
aI798
aI1642
asI23
(lp24
I8
aI65
aI139
aI198
aI212
aI282
aI309
aI334
aI377
aI378
aI392
aI446
aI485
aI498
aI664
aI687
aI800
aI889
aI1146
aI1200
aI1318
aI1689
asI24
(lp25
I0
asI25
(lp26
I0
aI73
aI106
aI195
aI207
aI223
aI784
asI26
(lp27
I10
aI129
aI266
asI27
(lp28
I11
aI46
aI136
aI159
aI190
aI219
aI398
aI474
aI547
aI680
aI1261
aI1319
aI1331
aI1635
asI28
(lp29
I0
aI615
asI29
(lp30
I13
asI30
(lp31
I2
aI33
aI74
aI497
aI838
aI1408
aI1508
aI1661
asI31
(lp32
I5
aI82
aI153
aI299
aI833
aI1173
asI32
(lp33
I7
aI68
aI520
aI934
aI1072
aI1104
asI33
(lp34
I30
aI563
aI1302
aI1335
asI34
(lp35
I3
aI79
aI126
aI920
aI1676
asI35
(lp36
I0
aI62
aI140
aI218
aI555
aI1087
aI1174
asI36
(lp37
I0
aI103
aI826
asI37
(lp38
I15
aI172
aI1004
asI38
(lp39
I9
asI39
(lp40
I7
asI40
(lp41
I5
aI47
aI91
aI132
aI214
aI399
aI426
aI457
aI509
aI567
aI581
aI692
aI935
aI1065
aI1070
aI1165
aI1258
aI1444
aI1484
aI1505
aI1521
aI1611
asI41
(lp42
I5
aI76
aI109
aI154
aI169
aI248
aI252
aI256
aI283
aI431
aI690
aI950
aI1024
aI1080
aI1225
aI1273
aI1617
asI42
(lp43
I0
aI182
aI808
aI931
aI1000
aI1336
aI1357
aI1364
aI1612
asI43
(lp44
I9
aI199
aI349
aI488
aI715
aI1448
asI44
(lp45
I2
asI45
(lp46
I0
aI515
aI566
asI46
(lp47
I27
aI75
aI912
aI963
aI989
asI47
(lp48
I40
asI48
(lp49
I0
aI67
aI83
aI92
aI124
aI165
aI347
aI357
aI386
aI456
aI1367
asI49
(lp50
I8
aI698
asI50
(lp51
I1
aI741
asI51
(lp52
I0
aI94
aI414
aI556
aI1490
asI52
(lp53
I4
aI87
aI89
aI809
aI938
aI978
aI1009
asI53
(lp54
I0
aI313
aI448
aI731
aI992
aI1553
asI54
(lp55
I8
aI370
aI383
aI1171
asI55
(lp56
I4
aI137
aI333
aI825
aI1115
aI1254
asI56
(lp57
I18
aI155
asI57
(lp58
I10
aI59
aI120
aI310
aI393
aI628
aI855
aI957
aI961
aI1079
aI1188
aI1315
asI58
(lp59
I8
aI612
asI59
(lp60
I57
aI827
asI60
(lp61
I0
asI61
(lp62
I9
asI62
(lp63
I35
aI163
aI239
aI296
aI423
aI473
aI480
aI573
aI763
aI1304
aI1434
aI1510
aI1582
aI1620
asI63
(lp64
I21
aI1476
asI64
(lp65
I10
aI396
asI65
(lp66
I23
aI123
aI253
aI311
aI345
aI358
aI1033
aI1260
aI1348
aI1399
aI1400
aI1528
asI66
(lp67
I5
asI67
(lp68
I48
aI262
aI853
aI955
asI68
(lp69
I32
aI261
aI718
aI1144
aI1640
asI69
(lp70
I0
aI101
aI134
aI176
aI353
aI719
aI1014
aI1086
aI1491
aI1535
asI70
(lp71
I2
aI111
aI161
aI1058
asI71
(lp72
I0
aI362
aI559
aI560
aI919
aI1353
asI72
(lp73
I0
aI562
asI73
(lp74
I25
aI114
asI74
(lp75
I30
aI1245
aI1538
asI75
(lp76
I46
aI1044
aI1324
aI1473
asI76
(lp77
I41
aI507
aI941
aI1355
aI1580
asI77
(lp78
I16
aI276
aI561
aI1445
asI78
(lp79
I8
aI171
aI1427
asI79
(lp80
I34
aI275
aI744
aI849
aI1003
aI1342
asI80
(lp81
I10
aI90
aI104
aI108
aI125
aI197
aI203
aI250
aI340
aI369
aI372
aI468
aI493
aI534
aI582
aI611
aI726
aI892
aI1373
aI1455
aI1493
asI81
(lp82
I19
aI117
aI267
aI482
aI516
aI720
aI1270
aI1492
asI82
(lp83
I31
asI83
(lp84
I48
aI343
asI84
(lp85
I0
aI1339
asI85
(lp86
I5
aI939
aI1027
asI86
(lp87
I5
aI118
aI583
aI633
asI87
(lp88
I52
aI107
aI192
aI202
aI244
aI355
aI389
aI590
aI655
aI667
aI1602
asI88
(lp89
I10
asI89
(lp90
I52
asI90
(lp91
I80
aI287
aI382
aI384
aI636
asI91
(lp92
I40
asI92
(lp93
I48
aI270
aI672
asI93
(lp94
I10
aI1238
asI94
(lp95
I51
asI95
(lp96
I5
aI152
asI96
(lp97
I8
aI141
aI526
aI670
aI753
aI910
aI924
aI1103
aI1323
asI97
(lp98
I2
aI234
aI472
aI528
aI686
aI845
aI857
aI1081
aI1298
aI1332
aI1343
aI1375
aI1672
asI98
(lp99
I0
aI510
aI725
aI814
aI971
asI99
(lp100
I4
aI211
aI592
asI100
(lp101
I10
asI101
(lp102
I69
aI146
aI268
aI531
aI804
asI102
(lp103
I8
aI593
aI617
aI879
aI1562
asI103
(lp104
I36
aI246
asI104
(lp105
I80
aI361
aI390
aI1038
asI105
(lp106
I0
asI106
(lp107
I25
aI121
aI147
aI237
aI565
aI799
aI1377
aI1693
asI107
(lp108
I87
aI188
aI519
asI108
(lp109
I80
aI183
aI304
asI109
(lp110
I41
asI110
(lp111
I16
aI127
aI143
aI215
aI452
aI736
aI796
aI1045
aI1060
aI1555
asI111
(lp112
I70
aI158
aI210
aI241
asI112
(lp113
I7
aI224
aI478
aI1306
asI113
(lp114
I0
aI259
aI894
asI114
(lp115
I73
asI115
(lp116
I3
aI135
aI145
aI157
aI595
aI626
aI852
asI116
(lp117
I0
aI379
aI673
aI860
aI915
asI117
(lp118
I81
aI936
asI118
(lp119
I86
aI242
aI501
asI119
(lp120
I0
aI228
aI639
aI893
aI1453
aI1587
asI120
(lp121
I57
aI131
aI1077
aI1334
aI1634
aI1663
asI121
(lp122
I106
aI255
aI306
aI314
aI324
aI508
aI564
aI614
aI816
aI1276
aI1299
aI1595
asI122
(lp123
I12
aI610
asI123
(lp124
I65
aI712
asI124
(lp125
I48
asI125
(lp126
I80
aI277
aI356
aI436
aI454
aI523
aI677
aI1042
aI1518
asI126
(lp127
I34
asI127
(lp128
I110
asI128
(lp129
I8
asI129
(lp130
I26
aI1112
asI130
(lp131
I10
asI131
(lp132
I120
aI164
asI132
(lp133
I40
aI243
aI337
aI524
aI905
aI1149
aI1216
aI1340
asI133
(lp134
I5
aI162
aI167
asI134
(lp135
I69
aI1015
aI1463
asI135
(lp136
I115
aI284
aI832
asI136
(lp137
I27
aI730
asI137
(lp138
I55
aI191
aI233
aI315
aI778
aI1227
asI138
(lp139
I5
aI441
aI460
aI1437
aI1616
asI139
(lp140
I23
aI492
aI675
aI929
aI1545
asI140
(lp141
I35
aI439
asI141
(lp142
I96
aI260
aI297
aI419
aI576
aI585
aI659
aI896
aI1337
aI1599
aI1641
aI1681
asI142
(lp143
I0
aI572
aI666
asI143
(lp144
I110
asI144
(lp145
I12
aI490
asI145
(lp146
I115
aI201
aI630
aI638
aI1017
aI1208
aI1511
asI146
(lp147
I101
aI217
aI514
aI1579
asI147
(lp148
I106
aI150
asI148
(lp149
I0
asI149
(lp150
I14
aI604
aI1461
asI150
(lp151
I147
aI330
aI486
asI151
(lp152
I6
aI502
aI535
aI820
aI842
aI1093
aI1128
aI1436
aI1500
asI152
(lp153
I95
aI678
aI859
asI153
(lp154
I31
aI635
aI984
aI1206
asI154
(lp155
I41
asI155
(lp156
I56
aI376
aI743
aI1049
aI1198
aI1470
asI156
(lp157
I19
aI238
asI157
(lp158
I115
aI200
asI158
(lp159
I111
aI1037
asI159
(lp160
I27
asI160
(lp161
I8
aI623
aI1466
asI161
(lp162
I70
asI162
(lp163
I133
aI991
asI163
(lp164
I62
aI760
aI1426
asI164
(lp165
I131
aI404
asI165
(lp166
I48
aI196
aI723
aI958
aI998
asI166
(lp167
I0
aI173
aI437
aI1108
aI1191
asI167
(lp168
I133
aI184
aI570
aI759
aI1007
asI168
(lp169
I8
aI249
aI291
aI1124
asI169
(lp170
I41
asI170
(lp171
I19
aI463
aI1172
asI171
(lp172
I78
aI240
aI1215
asI172
(lp173
I37
aI546
aI856
asI173
(lp174
I166
aI445
aI458
aI487
aI749
aI810
aI1120
aI1186
aI1456
asI174
(lp175
I5
aI537
aI1019
asI175
(lp176
I5
aI430
aI805
aI1050
aI1262
asI176
(lp177
I69
aI543
aI1040
asI177
(lp178
I0
aI181
aI263
aI529
aI1137
aI1311
aI1383
asI178
(lp179
I10
asI179
(lp180
I0
aI185
aI204
aI418
aI489
aI512
aI774
aI801
aI815
aI835
aI909
aI976
asI180
(lp181
I12
aI550
aI1282
asI181
(lp182
I177
aI811
aI1123
asI182
(lp183
I42
asI183
(lp184
I108
aI553
aI878
asI184
(lp185
I167
asI185
(lp186
I179
aI1540
asI186
(lp187
I8
asI187
(lp188
I5
aI312
asI188
(lp189
I107
asI189
(lp190
I5
aI469
aI1030
aI1386
aI1525
aI1564
asI190
(lp191
I27
aI344
aI542
aI979
aI1031
aI1295
aI1559
asI191
(lp192
I137
asI192
(lp193
I87
aI850
aI1690
asI193
(lp194
I8
aI216
aI269
aI613
aI679
aI1119
asI194
(lp195
I7
aI903
asI195
(lp196
I25
aI1224
asI196
(lp197
I165
aI220
aI1411
asI197
(lp198
I80
aI227
aI701
aI943
asI198
(lp199
I23
aI908
asI199
(lp200
I43
aI1091
asI200
(lp201
I157
asI201
(lp202
I145
asI202
(lp203
I87
aI775
asI203
(lp204
I80
aI739
aI1118
asI204
(lp205
I179
asI205
(lp206
I18
aI230
aI302
aI409
aI1111
aI1285
aI1552
asI206
(lp207
I4
asI207
(lp208
I25
aI280
asI208
(lp209
I14
aI433
aI450
aI589
aI918
aI956
aI1143
aI1166
aI1222
aI1359
asI209
(lp210
I0
aI406
aI1351
asI210
(lp211
I111
asI211
(lp212
I99
aI298
aI364
aI1122
aI1333
asI212
(lp213
I23
aI236
aI394
aI1132
aI1312
asI213
(lp214
I13
aI930
asI214
(lp215
I40
aI408
aI710
asI215
(lp216
I110
aI475
aI1578
asI216
(lp217
I193
asI217
(lp218
I146
aI1575
asI218
(lp219
I35
asI219
(lp220
I27
aI594
asI220
(lp221
I196
aI967
aI1151
asI221
(lp222
I12
aI326
aI429
asI222
(lp223
I12
aI257
aI1631
asI223
(lp224
I25
asI224
(lp225
I112
aI465
asI225
(lp226
I12
asI226
(lp227
I8
asI227
(lp228
I197
aI1677
asI228
(lp229
I119
asI229
(lp230
I12
asI230
(lp231
I205
aI440
aI795
asI231
(lp232
I0
aI649
asI232
(lp233
I3
aI695
aI1264
asI233
(lp234
I137
aI1249
asI234
(lp235
I97
asI235
(lp236
I0
asI236
(lp237
I212
aI301
aI336
aI341
aI837
aI996
aI1232
asI237
(lp238
I106
asI238
(lp239
I156
asI239
(lp240
I62
aI274
aI657
asI240
(lp241
I171
aI432
asI241
(lp242
I111
aI307
aI901
aI1623
asI242
(lp243
I118
aI279
asI243
(lp244
I132
asI244
(lp245
I87
aI1185
asI245
(lp246
I22
asI246
(lp247
I103
aI350
aI367
aI747
asI247
(lp248
I8
asI248
(lp249
I41
aI272
aI412
aI451
aI913
aI1117
aI1347
asI249
(lp250
I168
asI250
(lp251
I80
aI906
aI1301
asI251
(lp252
I0
aI308
aI484
aI740
aI917
asI252
(lp253
I41
asI253
(lp254
I65
aI444
aI577
aI651
aI762
aI866
aI1083
aI1381
aI1435
asI254
(lp255
I3
aI902
aI977
asI255
(lp256
I121
aI1085
aI1464
asI256
(lp257
I41
aI403
asI257
(lp258
I222
aI1271
aI1447
asI258
(lp259
I0
aI329
aI455
aI768
aI1226
aI1294
aI1465
asI259
(lp260
I113
asI260
(lp261
I141
asI261
(lp262
I68
asI262
(lp263
I67
aI1048
aI1385
asI263
(lp264
I177
asI264
(lp265
I9
asI265
(lp266
I0
aI696
asI266
(lp267
I26
aI424
aI662
aI861
asI267
(lp268
I81
aI539
aI1073
asI268
(lp269
I101
asI269
(lp270
I193
aI865
asI270
(lp271
I92
aI425
aI470
aI536
aI603
aI818
aI895
aI1130
asI271
(lp272
I8
aI584
aI872
aI1025
asI272
(lp273
I248
asI273
(lp274
I0
aI293
aI339
aI1657
asI274
(lp275
I239
asI275
(lp276
I79
aI303
aI322
aI1615
asI276
(lp277
I77
aI821
asI277
(lp278
I125
aI476
asI278
(lp279
I9
aI1526
asI279
(lp280
I242
asI280
(lp281
I207
asI281
(lp282
I22
asI282
(lp283
I23
aI1263
aI1467
asI283
(lp284
I41
aI1645
asI284
(lp285
I135
asI285
(lp286
I3
aI354
asI286
(lp287
I10
asI287
(lp288
I90
asI288
(lp289
I5
asI289
(lp290
I5
aI656
aI772
aI875
aI1067
aI1147
aI1148
aI1483
asI290
(lp291
I8
aI375
aI1100
asI291
(lp292
I168
aI317
aI321
aI699
asI292
(lp293
I0
asI293
(lp294
I273
asI294
(lp295
I3
aI530
aI693
aI729
asI295
(lp296
I0
aI839
asI296
(lp297
I62
aI415
aI422
aI427
aI505
aI716
aI773
aI781
aI823
aI874
aI953
aI1026
aI1202
aI1280
aI1314
aI1325
aI1391
aI1405
aI1517
aI1632
asI297
(lp298
I141
asI298
(lp299
I211
aI1308
aI1695
asI299
(lp300
I31
aI1018
asI300
(lp301
I8
aI600
aI1638
asI301
(lp302
I236
aI843
asI302
(lp303
I205
asI303
(lp304
I275
aI1159
asI304
(lp305
I108
aI325
aI327
aI352
aI511
aI1307
asI305
(lp306
I8
aI335
aI1236
asI306
(lp307
I121
aI653
aI748
aI898
aI1454
asI307
(lp308
I241
asI308
(lp309
I251
asI309
(lp310
I23
aI416
aI1231
aI1684
asI310
(lp311
I57
asI311
(lp312
I65
aI648
aI1284
aI1303
aI1462
aI1558
asI312
(lp313
I187
asI313
(lp314
I53
aI368
aI395
aI1034
asI314
(lp315
I121
asI315
(lp316
I137
aI420
aI1257
aI1516
asI316
(lp317
I6
aI1180
asI317
(lp318
I291
asI318
(lp319
I8
asI319
(lp320
I8
aI1075
asI320
(lp321
I12
aI360
aI462
aI549
aI620
aI631
aI1242
asI321
(lp322
I291
asI322
(lp323
I275
asI323
(lp324
I18
asI324
(lp325
I121
aI1656
asI325
(lp326
I304
asI326
(lp327
I221
asI327
(lp328
I304
asI328
(lp329
I9
asI329
(lp330
I258
asI330
(lp331
I150
asI331
(lp332
I0
asI332
(lp333
I12
asI333
(lp334
I55
aI374
aI532
aI788
aI1625
asI334
(lp335
I23
asI335
(lp336
I305
aI1551
asI336
(lp337
I236
aI1078
aI1089
asI337
(lp338
I132
asI338
(lp339
I3
asI339
(lp340
I273
asI340
(lp341
I80
asI341
(lp342
I236
asI342
(lp343
I12
aI1326
asI343
(lp344
I83
asI344
(lp345
I190
asI345
(lp346
I65
asI346
(lp347
I0
aI371
aI413
aI449
aI494
aI923
aI1092
asI347
(lp348
I48
aI1090
asI348
(lp349
I10
aI1253
aI1512
asI349
(lp350
I43
asI350
(lp351
I246
aI401
aI447
aI571
aI1449
aI1499
asI351
(lp352
I0
asI352
(lp353
I304
aI1121
asI353
(lp354
I69
asI354
(lp355
I285
asI355
(lp356
I87
aI1380
asI356
(lp357
I125
asI357
(lp358
I48
aI1133
asI358
(lp359
I65
aI625
aI689
aI1036
aI1142
asI359
(lp360
I0
aI1428
asI360
(lp361
I320
aI599
asI361
(lp362
I104
asI362
(lp363
I71
aI932
asI363
(lp364
I19
aI479
aI751
aI783
asI364
(lp365
I211
aI417
aI503
aI1127
asI365
(lp366
I18
aI541
aI824
aI946
aI1101
aI1378
asI366
(lp367
I0
aI373
aI391
aI435
aI500
aI642
aI873
aI1084
aI1274
aI1481
asI367
(lp368
I246
aI621
aI705
aI822
asI368
(lp369
I313
aI669
aI974
aI1608
aI1670
asI369
(lp370
I80
aI527
aI598
asI370
(lp371
I54
aI496
aI708
aI972
aI1156
asI371
(lp372
I346
aI1692
asI372
(lp373
I80
asI373
(lp374
I366
asI374
(lp375
I333
asI375
(lp376
I290
aI1543
asI376
(lp377
I155
aI755
aI1498
asI377
(lp378
I23
aI1277
aI1446
asI378
(lp379
I23
asI379
(lp380
I116
aI1110
asI380
(lp381
I9
aI1419
asI381
(lp382
I0
asI382
(lp383
I90
aI385
aI1068
aI1416
asI383
(lp384
I54
asI384
(lp385
I90
asI385
(lp386
I382
asI386
(lp387
I48
asI387
(lp388
I0
asI388
(lp389
I8
asI389
(lp390
I87
aI1626
asI390
(lp391
I104
asI391
(lp392
I366
asI392
(lp393
I23
aI575
aI735
asI393
(lp394
I57
asI394
(lp395
I212
asI395
(lp396
I313
asI396
(lp397
I64
asI397
(lp398
I13
asI398
(lp399
I27
aI1131
asI399
(lp400
I40
aI540
aI554
aI981
aI1139
aI1161
aI1460
aI1474
asI400
(lp401
I8
aI668
aI793
asI401
(lp402
I350
aI1629
asI402
(lp403
I14
aI647
aI1431
asI403
(lp404
I256
aI545
asI404
(lp405
I164
aI588
aI601
aI1321
asI405
(lp406
I3
aI513
aI665
aI779
aI1032
aI1169
aI1607
asI406
(lp407
I209
aI1430
asI407
(lp408
I3
asI408
(lp409
I214
asI409
(lp410
I205
asI410
(lp411
I7
asI411
(lp412
I0
asI412
(lp413
I248
aI428
aI734
aI969
asI413
(lp414
I346
aI746
aI1109
aI1563
asI414
(lp415
I51
asI415
(lp416
I296
asI416
(lp417
I309
asI417
(lp418
I364
aI1259
asI418
(lp419
I179
aI1251
asI419
(lp420
I141
asI420
(lp421
I315
asI421
(lp422
I0
asI422
(lp423
I296
aI443
aI1082
asI423
(lp424
I62
asI424
(lp425
I266
asI425
(lp426
I270
aI702
aI797
aI1061
aI1125
aI1160
aI1287
aI1581
asI426
(lp427
I40
asI427
(lp428
I296
aI704
asI428
(lp429
I412
aI609
aI1096
asI429
(lp430
I221
aI1138
asI430
(lp431
I175
asI431
(lp432
I41
aI533
aI618
aI911
asI432
(lp433
I240
aI551
aI1547
asI433
(lp434
I208
asI434
(lp435
I19
asI435
(lp436
I366
asI436
(lp437
I125
aI438
aI1207
aI1687
asI437
(lp438
I166
asI438
(lp439
I436
asI439
(lp440
I140
asI440
(lp441
I230
asI441
(lp442
I138
aI1696
asI442
(lp443
I8
aI1134
asI443
(lp444
I422
asI444
(lp445
I253
asI445
(lp446
I173
aI1107
asI446
(lp447
I23
asI447
(lp448
I350
aI791
aI1650
asI448
(lp449
I53
asI449
(lp450
I346
asI450
(lp451
I208
aI477
asI451
(lp452
I248
aI926
asI452
(lp453
I110
aI1182
asI453
(lp454
I9
asI454
(lp455
I125
aI646
asI455
(lp456
I258
asI456
(lp457
I48
aI928
aI949
aI1099
aI1183
asI457
(lp458
I40
asI458
(lp459
I173
aI467
aI499
asI459
(lp460
I10
asI460
(lp461
I138
aI881
aI1187
asI461
(lp462
I17
asI462
(lp463
I320
asI463
(lp464
I170
aI993
aI1055
asI464
(lp465
I7
asI465
(lp466
I224
asI466
(lp467
I0
asI467
(lp468
I458
asI468
(lp469
I80
asI469
(lp470
I189
aI1218
aI1286
aI1609
asI470
(lp471
I270
aI1550
asI471
(lp472
I17
aI1424
asI472
(lp473
I97
asI473
(lp474
I62
asI474
(lp475
I27
aI574
aI752
aI1590
asI475
(lp476
I215
aI983
aI1530
asI476
(lp477
I277
aI569
aI717
aI737
aI803
aI1685
asI477
(lp478
I450
asI478
(lp479
I112
asI479
(lp480
I363
asI480
(lp481
I62
asI481
(lp482
I12
aI685
asI482
(lp483
I81
asI483
(lp484
I9
asI484
(lp485
I251
asI485
(lp486
I23
aI1211
asI486
(lp487
I150
asI487
(lp488
I173
asI488
(lp489
I43
asI489
(lp490
I179
aI834
aI990
asI490
(lp491
I144
aI640
aI1358
asI491
(lp492
I19
asI492
(lp493
I139
asI493
(lp494
I80
aI1196
asI494
(lp495
I346
aI782
aI1671
aI1678
asI495
(lp496
I0
aI890
asI496
(lp497
I370
aI886
aI1288
aI1354
asI497
(lp498
I30
aI1699
asI498
(lp499
I23
asI499
(lp500
I458
asI500
(lp501
I366
aI885
asI501
(lp502
I118
asI502
(lp503
I151
asI503
(lp504
I364
asI504
(lp505
I8
asI505
(lp506
I296
asI506
(lp507
I8
asI507
(lp508
I76
asI508
(lp509
I121
asI509
(lp510
I40
asI510
(lp511
I98
asI511
(lp512
I304
asI512
(lp513
I179
asI513
(lp514
I405
aI691
asI514
(lp515
I146
asI515
(lp516
I45
aI586
asI516
(lp517
I81
aI1297
asI517
(lp518
I0
asI518
(lp519
I10
aI658
aI1022
asI519
(lp520
I107
asI520
(lp521
I32
asI521
(lp522
I0
aI767
asI522
(lp523
I5
asI523
(lp524
I125
aI579
aI694
aI787
aI948
aI1679
asI524
(lp525
I132
aI1660
asI525
(lp526
I0
asI526
(lp527
I96
asI527
(lp528
I369
asI528
(lp529
I97
asI529
(lp530
I177
aI1233
asI530
(lp531
I294
asI531
(lp532
I101
aI622
asI532
(lp533
I333
asI533
(lp534
I431
aI828
aI1371
aI1489
asI534
(lp535
I80
asI535
(lp536
I151
asI536
(lp537
I270
asI537
(lp538
I174
aI544
aI786
asI538
(lp539
I0
asI539
(lp540
I267
aI777
asI540
(lp541
I399
asI541
(lp542
I365
aI1374
aI1698
asI542
(lp543
I190
aI1368
asI543
(lp544
I176
asI544
(lp545
I537
aI1577
asI545
(lp546
I403
aI634
aI1313
asI546
(lp547
I172
asI547
(lp548
I27
aI722
aI1495
asI548
(lp549
I4
asI549
(lp550
I320
asI550
(lp551
I180
asI551
(lp552
I432
aI616
aI1651
asI552
(lp553
I0
asI553
(lp554
I183
asI554
(lp555
I399
aI602
asI555
(lp556
I35
asI556
(lp557
I51
asI557
(lp558
I0
aI1532
asI558
(lp559
I16
asI559
(lp560
I71
asI560
(lp561
I71
aI644
aI714
asI561
(lp562
I77
aI580
aI840
aI1576
asI562
(lp563
I72
asI563
(lp564
I33
asI564
(lp565
I121
aI1135
asI565
(lp566
I106
aI643
aI676
aI829
aI1549
aI1633
asI566
(lp567
I45
aI1488
asI567
(lp568
I40
aI1666
asI568
(lp569
I3
asI569
(lp570
I476
asI570
(lp571
I167
aI641
asI571
(lp572
I350
asI572
(lp573
I142
asI573
(lp574
I62
asI574
(lp575
I474
asI575
(lp576
I392
asI576
(lp577
I141
asI577
(lp578
I253
asI578
(lp579
I12
aI944
asI579
(lp580
I523
asI580
(lp581
I561
asI581
(lp582
I40
asI582
(lp583
I80
asI583
(lp584
I86
aI973
asI584
(lp585
I271
asI585
(lp586
I141
aI608
aI1239
asI586
(lp587
I515
asI587
(lp588
I11
asI588
(lp589
I404
asI589
(lp590
I208
aI887
asI590
(lp591
I87
aI962
aI1350
aI1379
aI1548
asI591
(lp592
I9
aI900
asI592
(lp593
I99
aI940
aI1527
asI593
(lp594
I102
aI650
asI594
(lp595
I219
asI595
(lp596
I115
asI596
(lp597
I10
aI674
aI1221
asI597
(lp598
I13
aI1390
asI598
(lp599
I369
asI599
(lp600
I360
asI600
(lp601
I300
asI601
(lp602
I404
asI602
(lp603
I554
asI603
(lp604
I270
aI1482
asI604
(lp605
I149
asI605
(lp606
I20
aI1020
asI606
(lp607
I0
aI1637
asI607
(lp608
I5
aI968
aI1170
aI1209
asI608
(lp609
I585
asI609
(lp610
I428
asI610
(lp611
I122
aI966
aI1199
aI1624
asI611
(lp612
I80
aI1415
asI612
(lp613
I58
asI613
(lp614
I193
asI614
(lp615
I121
asI615
(lp616
I28
asI616
(lp617
I551
asI617
(lp618
I102
aI1272
asI618
(lp619
I431
aI738
asI619
(lp620
I2
asI620
(lp621
I320
asI621
(lp622
I367
asI622
(lp623
I531
aI632
aI1043
asI623
(lp624
I160
asI624
(lp625
I0
aI841
asI625
(lp626
I358
aI745
aI789
aI1247
aI1442
aI1646
aI1694
asI626
(lp627
I115
asI627
(lp628
I3
asI628
(lp629
I57
aI682
asI629
(lp630
I12
asI630
(lp631
I145
aI975
asI631
(lp632
I320
asI632
(lp633
I622
asI633
(lp634
I86
asI634
(lp635
I545
asI635
(lp636
I153
aI994
asI636
(lp637
I90
asI637
(lp638
I2
asI638
(lp639
I145
asI639
(lp640
I119
aI697
asI640
(lp641
I490
aI688
aI761
asI641
(lp642
I570
asI642
(lp643
I366
aI806
aI858
asI643
(lp644
I565
aI700
aI1013
asI644
(lp645
I560
asI645
(lp646
I10
asI646
(lp647
I454
aI1066
asI647
(lp648
I402
asI648
(lp649
I311
aI660
aI684
aI721
aI1636
asI649
(lp650
I231
asI650
(lp651
I593
asI651
(lp652
I253
aI1568
asI652
(lp653
I17
asI653
(lp654
I306
asI654
(lp655
I0
asI655
(lp656
I87
asI656
(lp657
I289
aI884
aI1167
asI657
(lp658
I239
asI658
(lp659
I518
asI659
(lp660
I141
asI660
(lp661
I648
aI703
aI790
aI1021
asI661
(lp662
I1
asI662
(lp663
I266
asI663
(lp664
I3
asI664
(lp665
I23
asI665
(lp666
I405
aI880
aI904
aI1035
asI666
(lp667
I142
asI667
(lp668
I87
aI792
aI1074
asI668
(lp669
I400
asI669
(lp670
I368
aI681
aI1201
asI670
(lp671
I96
asI671
(lp672
I3
asI672
(lp673
I92
asI673
(lp674
I116
aI1662
asI674
(lp675
I596
asI675
(lp676
I139
aI1648
asI676
(lp677
I565
asI677
(lp678
I125
aI987
asI678
(lp679
I152
aI727
aI1051
aI1244
asI679
(lp680
I193
asI680
(lp681
I27
asI681
(lp682
I669
aI1002
asI682
(lp683
I628
asI683
(lp684
I12
asI684
(lp685
I648
asI685
(lp686
I481
aI1316
asI686
(lp687
I97
aI742
asI687
(lp688
I23
aI707
aI1241
aI1477
aI1664
asI688
(lp689
I640
aI995
asI689
(lp690
I358
asI690
(lp691
I41
asI691
(lp692
I513
asI692
(lp693
I40
asI693
(lp694
I294
asI694
(lp695
I523
aI1369
asI695
(lp696
I232
asI696
(lp697
I265
asI697
(lp698
I639
asI698
(lp699
I49
aI780
aI1234
aI1252
asI699
(lp700
I291
asI700
(lp701
I643
asI701
(lp702
I197
asI702
(lp703
I425
asI703
(lp704
I660
asI704
(lp705
I427
aI1592
asI705
(lp706
I367
asI706
(lp707
I8
asI707
(lp708
I687
asI708
(lp709
I370
asI709
(lp710
I0
asI710
(lp711
I214
asI711
(lp712
I8
asI712
(lp713
I123
aI771
asI713
(lp714
I5
asI714
(lp715
I560
asI715
(lp716
I43
asI716
(lp717
I296
asI717
(lp718
I476
aI756
asI718
(lp719
I68
asI719
(lp720
I69
asI720
(lp721
I81
asI721
(lp722
I648
asI722
(lp723
I547
asI723
(lp724
I165
asI724
(lp725
I18
aI769
asI725
(lp726
I98
asI726
(lp727
I80
asI727
(lp728
I678
asI728
(lp729
I8
asI729
(lp730
I294
asI730
(lp731
I136
asI731
(lp732
I53
aI867
asI732
(lp733
I5
aI750
asI733
(lp734
I6
aI960
aI1105
asI734
(lp735
I412
asI735
(lp736
I392
asI736
(lp737
I110
asI737
(lp738
I476
aI846
asI738
(lp739
I618
aI1322
asI739
(lp740
I203
aI985
aI1598
asI740
(lp741
I251
aI1184
asI741
(lp742
I50
aI870
aI1069
aI1243
aI1605
asI742
(lp743
I686
asI743
(lp744
I155
aI888
asI744
(lp745
I79
aI1098
aI1403
asI745
(lp746
I625
aI1668
asI746
(lp747
I413
asI747
(lp748
I246
asI748
(lp749
I306
asI749
(lp750
I173
aI952
asI750
(lp751
I732
asI751
(lp752
I363
asI752
(lp753
I474
aI1686
asI753
(lp754
I96
asI754
(lp755
I1
asI755
(lp756
I376
aI1329
aI1382
asI756
(lp757
I717
asI757
(lp758
I0
asI758
(lp759
I8
asI759
(lp760
I167
asI760
(lp761
I163
asI761
(lp762
I640
asI762
(lp763
I253
aI794
aI1574
asI763
(lp764
I62
asI764
(lp765
I6
aI877
aI1487
asI765
(lp766
I8
aI836
aI1396
aI1533
asI766
(lp767
I13
asI767
(lp768
I521
asI768
(lp769
I258
asI769
(lp770
I724
aI1417
asI770
(lp771
I18
aI1459
asI771
(lp772
I712
asI772
(lp773
I289
aI945
aI1029
asI773
(lp774
I296
asI774
(lp775
I179
asI775
(lp776
I202
asI776
(lp777
I8
aI854
asI777
(lp778
I539
aI1567
asI778
(lp779
I137
asI779
(lp780
I405
asI780
(lp781
I698
aI951
aI1537
aI1674
asI781
(lp782
I296
aI959
aI1028
aI1296
asI782
(lp783
I494
asI783
(lp784
I363
asI784
(lp785
I25
asI785
(lp786
I10
asI786
(lp787
I537
asI787
(lp788
I523
aI907
asI788
(lp789
I333
aI1429
asI789
(lp790
I625
asI790
(lp791
I660
asI791
(lp792
I447
asI792
(lp793
I667
aI899
aI933
aI1520
asI793
(lp794
I400
asI794
(lp795
I762
asI795
(lp796
I230
asI796
(lp797
I110
asI797
(lp798
I425
aI1614
asI798
(lp799
I22
aI1570
asI799
(lp800
I106
asI800
(lp801
I23
asI801
(lp802
I179
aI954
asI802
(lp803
I0
asI803
(lp804
I476
aI986
asI804
(lp805
I101
aI1023
asI805
(lp806
I175
aI817
asI806
(lp807
I642
aI1205
aI1649
aI1655
asI807
(lp808
I2
asI808
(lp809
I42
aI925
asI809
(lp810
I52
asI810
(lp811
I173
aI891
asI811
(lp812
I181
asI812
(lp813
I1
asI813
(lp814
I8
aI1047
asI814
(lp815
I98
asI815
(lp816
I179
asI816
(lp817
I121
aI1536
asI817
(lp818
I805
asI818
(lp819
I270
asI819
(lp820
I8
aI1554
asI820
(lp821
I151
asI821
(lp822
I276
asI822
(lp823
I367
aI1370
asI823
(lp824
I296
asI824
(lp825
I365
asI825
(lp826
I55
aI844
asI826
(lp827
I36
asI827
(lp828
I59
asI828
(lp829
I533
asI829
(lp830
I565
asI830
(lp831
I16
asI831
(lp832
I12
asI832
(lp833
I135
asI833
(lp834
I31
asI834
(lp835
I489
asI835
(lp836
I179
asI836
(lp837
I765
aI1310
aI1586
asI837
(lp838
I236
asI838
(lp839
I30
asI839
(lp840
I295
asI840
(lp841
I561
asI841
(lp842
I624
asI842
(lp843
I151
asI843
(lp844
I301
asI844
(lp845
I825
asI845
(lp846
I97
asI846
(lp847
I737
aI1384
asI847
(lp848
I9
asI848
(lp849
I5
aI1423
asI849
(lp850
I79
asI850
(lp851
I192
asI851
(lp852
I8
asI852
(lp853
I115
aI1412
asI853
(lp854
I67
asI854
(lp855
I776
asI855
(lp856
I57
asI856
(lp857
I172
asI857
(lp858
I97
aI1155
asI858
(lp859
I642
asI859
(lp860
I152
asI860
(lp861
I116
aI1514
asI861
(lp862
I266
asI862
(lp863
I8
asI863
(lp864
I8
aI1643
asI864
(lp865
I8
aI1046
asI865
(lp866
I269
asI866
(lp867
I253
asI867
(lp868
I731
aI988
asI868
(lp869
I0
aI1509
asI869
(lp870
I12
asI870
(lp871
I741
asI871
(lp872
I10
aI1094
asI872
(lp873
I271
aI1063
asI873
(lp874
I366
asI874
(lp875
I296
aI1016
aI1193
aI1230
asI875
(lp876
I289
asI876
(lp877
I3
asI877
(lp878
I764
aI1360
asI878
(lp879
I183
asI879
(lp880
I102
asI880
(lp881
I665
asI881
(lp882
I460
aI1010
asI882
(lp883
I8
asI883
(lp884
I0
asI884
(lp885
I656
aI1398
asI885
(lp886
I500
asI886
(lp887
I496
aI1039
aI1406
asI887
(lp888
I589
asI888
(lp889
I743
asI889
(lp890
I23
asI890
(lp891
I495
asI891
(lp892
I810
asI892
(lp893
I80
asI893
(lp894
I119
aI1246
asI894
(lp895
I113
asI895
(lp896
I270
asI896
(lp897
I141
asI897
(lp898
I0
asI898
(lp899
I306
asI899
(lp900
I792
aI1410
asI900
(lp901
I591
asI901
(lp902
I241
asI902
(lp903
I254
asI903
(lp904
I194
asI904
(lp905
I665
asI905
(lp906
I132
asI906
(lp907
I250
asI907
(lp908
I787
asI908
(lp909
I198
asI909
(lp910
I179
asI910
(lp911
I96
asI911
(lp912
I431
asI912
(lp913
I46
aI1153
asI913
(lp914
I248
asI914
(lp915
I0
asI915
(lp916
I116
asI916
(lp917
I10
aI1041
asI917
(lp918
I251
asI918
(lp919
I208
aI1056
asI919
(lp920
I71
aI1210
asI920
(lp921
I34
aI970
asI921
(lp922
I18
asI922
(lp923
I16
asI923
(lp924
I346
asI924
(lp925
I96
asI925
(lp926
I808
asI926
(lp927
I451
asI927
(lp928
I0
asI928
(lp929
I456
asI929
(lp930
I139
aI1168
aI1255
aI1267
asI930
(lp931
I213
asI931
(lp932
I42
asI932
(lp933
I362
asI933
(lp934
I792
asI934
(lp935
I32
asI935
(lp936
I40
asI936
(lp937
I117
aI1601
asI937
(lp938
I5
aI1162
aI1164
aI1639
asI938
(lp939
I52
aI1114
aI1291
aI1394
aI1597
asI939
(lp940
I85
asI940
(lp941
I592
asI941
(lp942
I76
aI982
aI997
aI999
aI1012
aI1346
aI1458
asI942
(lp943
I11
asI943
(lp944
I197
asI944
(lp945
I578
asI945
(lp946
I772
asI946
(lp947
I365
aI1071
asI947
(lp948
I4
aI1320
asI948
(lp949
I523
aI1102
aI1317
asI949
(lp950
I456
aI1603
asI950
(lp951
I41
asI951
(lp952
I780
aI1683
asI952
(lp953
I749
asI953
(lp954
I296
aI1163
asI954
(lp955
I801
aI1486
asI955
(lp956
I67
aI1363
asI956
(lp957
I208
asI957
(lp958
I57
aI980
aI1217
asI958
(lp959
I165
asI959
(lp960
I781
asI960
(lp961
I733
aI1053
asI961
(lp962
I57
asI962
(lp963
I590
asI963
(lp964
I46
aI1451
asI964
(lp965
I10
asI965
(lp966
I1
aI1106
aI1566
asI966
(lp967
I610
aI1008
asI967
(lp968
I220
asI968
(lp969
I607
aI1095
asI969
(lp970
I412
aI1589
asI970
(lp971
I920
aI1440
asI971
(lp972
I98
aI1189
aI1503
asI972
(lp973
I370
asI973
(lp974
I583
asI974
(lp975
I368
aI1250
asI975
(lp976
I630
aI1197
asI976
(lp977
I179
asI977
(lp978
I254
asI978
(lp979
I52
asI979
(lp980
I190
asI980
(lp981
I957
asI981
(lp982
I399
asI982
(lp983
I941
aI1054
asI983
(lp984
I475
asI984
(lp985
I153
asI985
(lp986
I739
asI986
(lp987
I803
asI987
(lp988
I677
asI988
(lp989
I867
asI989
(lp990
I46
asI990
(lp991
I489
asI991
(lp992
I162
asI992
(lp993
I53
asI993
(lp994
I463
asI994
(lp995
I635
asI995
(lp996
I688
asI996
(lp997
I236
asI997
(lp998
I941
asI998
(lp999
I165
aI1669
asI999
(lp1000
I941
asI1000
(lp1001
I42
aI1395
asI1001
(lp1002
I0
asI1002
(lp1003
I681
asI1003
(lp1004
I79
aI1052
asI1004
(lp1005
I37
asI1005
(lp1006
I12
asI1006
(lp1007
I0
asI1007
(lp1008
I167
aI1557
asI1008
(lp1009
I966
asI1009
(lp1010
I52
asI1010
(lp1011
I881
asI1011
(lp1012
I10
asI1012
(lp1013
I941
asI1013
(lp1014
I643
asI1014
(lp1015
I69
aI1204
asI1015
(lp1016
I134
asI1016
(lp1017
I874
aI1507
asI1017
(lp1018
I145
asI1018
(lp1019
I299
asI1019
(lp1020
I174
asI1020
(lp1021
I605
asI1021
(lp1022
I660
aI1097
aI1145
asI1022
(lp1023
I518
asI1023
(lp1024
I804
asI1024
(lp1025
I41
asI1025
(lp1026
I271
asI1026
(lp1027
I296
aI1154
aI1181
asI1027
(lp1028
I85
asI1028
(lp1029
I781
aI1504
asI1029
(lp1030
I772
asI1030
(lp1031
I189
asI1031
(lp1032
I190
asI1032
(lp1033
I405
asI1033
(lp1034
I65
asI1034
(lp1035
I313
asI1035
(lp1036
I665
aI1064
aI1443
asI1036
(lp1037
I358
aI1175
asI1037
(lp1038
I158
aI1401
asI1038
(lp1039
I104
asI1039
(lp1040
I886
aI1076
aI1441
asI1040
(lp1041
I176
asI1041
(lp1042
I916
asI1042
(lp1043
I125
asI1043
(lp1044
I622
aI1338
aI1366
asI1044
(lp1045
I75
asI1045
(lp1046
I110
asI1046
(lp1047
I864
asI1047
(lp1048
I813
aI1195
asI1048
(lp1049
I262
aI1565
asI1049
(lp1050
I155
aI1452
asI1050
(lp1051
I175
asI1051
(lp1052
I678
asI1052
(lp1053
I1003
asI1053
(lp1054
I960
asI1054
(lp1055
I982
asI1055
(lp1056
I463
asI1056
(lp1057
I918
asI1057
(lp1058
I18
aI1402
aI1522
asI1058
(lp1059
I70
aI1496
asI1059
(lp1060
I5
asI1060
(lp1061
I110
asI1061
(lp1062
I425
asI1062
(lp1063
I0
aI1571
asI1063
(lp1064
I872
asI1064
(lp1065
I1035
aI1116
asI1065
(lp1066
I40
asI1066
(lp1067
I646
asI1067
(lp1068
I289
aI1177
aI1362
aI1425
aI1606
asI1068
(lp1069
I382
aI1213
asI1069
(lp1070
I741
asI1070
(lp1071
I40
asI1071
(lp1072
I946
asI1072
(lp1073
I32
asI1073
(lp1074
I267
asI1074
(lp1075
I667
aI1150
asI1075
(lp1076
I319
asI1076
(lp1077
I1039
asI1077
(lp1078
I120
asI1078
(lp1079
I336
asI1079
(lp1080
I57
asI1080
(lp1081
I41
asI1081
(lp1082
I97
asI1082
(lp1083
I422
asI1083
(lp1084
I253
asI1084
(lp1085
I366
asI1085
(lp1086
I255
asI1086
(lp1087
I69
aI1141
asI1087
(lp1088
I35
aI1439
aI1569
asI1088
(lp1089
I12
aI1158
asI1089
(lp1090
I336
asI1090
(lp1091
I347
asI1091
(lp1092
I199
asI1092
(lp1093
I346
asI1093
(lp1094
I151
asI1094
(lp1095
I871
asI1095
(lp1096
I968
asI1096
(lp1097
I428
asI1097
(lp1098
I1021
asI1098
(lp1099
I744
asI1099
(lp1100
I456
asI1100
(lp1101
I290
asI1101
(lp1102
I365
asI1102
(lp1103
I948
asI1103
(lp1104
I96
asI1104
(lp1105
I32
asI1105
(lp1106
I733
asI1106
(lp1107
I965
asI1107
(lp1108
I445
aI1126
aI1501
asI1108
(lp1109
I166
asI1109
(lp1110
I413
asI1110
(lp1111
I379
asI1111
(lp1112
I205
asI1112
(lp1113
I129
asI1113
(lp1114
I11
asI1114
(lp1115
I938
aI1673
asI1115
(lp1116
I55
aI1531
asI1116
(lp1117
I1064
asI1117
(lp1118
I248
aI1190
asI1118
(lp1119
I203
asI1119
(lp1120
I193
asI1120
(lp1121
I173
asI1121
(lp1122
I352
asI1122
(lp1123
I211
asI1123
(lp1124
I181
asI1124
(lp1125
I168
asI1125
(lp1126
I425
asI1126
(lp1127
I1107
asI1127
(lp1128
I364
asI1128
(lp1129
I151
aI1248
asI1129
(lp1130
I0
asI1130
(lp1131
I270
asI1131
(lp1132
I398
asI1132
(lp1133
I212
aI1588
asI1133
(lp1134
I357
aI1269
aI1345
aI1438
asI1134
(lp1135
I442
asI1135
(lp1136
I564
asI1136
(lp1137
I10
asI1137
(lp1138
I177
asI1138
(lp1139
I429
asI1139
(lp1140
I399
asI1140
(lp1141
I8
aI1457
asI1141
(lp1142
I1086
asI1142
(lp1143
I358
asI1143
(lp1144
I208
asI1144
(lp1145
I68
asI1145
(lp1146
I1021
asI1146
(lp1147
I23
asI1147
(lp1148
I289
aI1478
asI1148
(lp1149
I289
asI1149
(lp1150
I132
asI1150
(lp1151
I1074
asI1151
(lp1152
I220
asI1152
(lp1153
I8
asI1153
(lp1154
I912
asI1154
(lp1155
I1026
aI1361
asI1155
(lp1156
I857
asI1156
(lp1157
I370
asI1157
(lp1158
I3
aI1178
asI1158
(lp1159
I1088
aI1212
asI1159
(lp1160
I303
asI1160
(lp1161
I425
asI1161
(lp1162
I399
aI1506
asI1162
(lp1163
I937
asI1163
(lp1164
I953
asI1164
(lp1165
I937
asI1165
(lp1166
I40
asI1166
(lp1167
I208
asI1167
(lp1168
I656
asI1168
(lp1169
I929
asI1169
(lp1170
I405
aI1176
aI1502
asI1170
(lp1171
I607
asI1171
(lp1172
I54
asI1172
(lp1173
I170
asI1173
(lp1174
I31
asI1174
(lp1175
I35
asI1175
(lp1176
I1036
asI1176
(lp1177
I1169
asI1177
(lp1178
I1067
asI1178
(lp1179
I1157
asI1179
(lp1180
I0
asI1180
(lp1181
I316
asI1181
(lp1182
I1026
asI1182
(lp1183
I452
aI1330
asI1183
(lp1184
I456
aI1388
aI1544
asI1184
(lp1185
I740
asI1185
(lp1186
I244
aI1341
asI1186
(lp1187
I173
asI1187
(lp1188
I460
asI1188
(lp1189
I57
asI1189
(lp1190
I971
asI1190
(lp1191
I1117
aI1305
asI1191
(lp1192
I166
asI1192
(lp1193
I3
asI1193
(lp1194
I874
asI1194
(lp1195
I3
asI1195
(lp1196
I1047
asI1196
(lp1197
I493
asI1197
(lp1198
I975
asI1198
(lp1199
I155
asI1199
(lp1200
I610
aI1278
aI1688
asI1200
(lp1201
I23
asI1201
(lp1202
I669
aI1387
asI1202
(lp1203
I296
asI1203
(lp1204
I16
asI1204
(lp1205
I1014
asI1205
(lp1206
I806
aI1542
asI1206
(lp1207
I153
aI1228
asI1207
(lp1208
I436
asI1208
(lp1209
I145
asI1209
(lp1210
I607
asI1210
(lp1211
I919
asI1211
(lp1212
I485
asI1212
(lp1213
I1158
asI1213
(lp1214
I1068
asI1214
(lp1215
I16
asI1215
(lp1216
I171
asI1216
(lp1217
I132
asI1217
(lp1218
I957
asI1218
(lp1219
I469
asI1219
(lp1220
I8
aI1293
aI1541
asI1220
(lp1221
I5
asI1221
(lp1222
I596
asI1222
(lp1223
I208
asI1223
(lp1224
I0
asI1224
(lp1225
I195
asI1225
(lp1226
I41
asI1226
(lp1227
I258
asI1227
(lp1228
I137
asI1228
(lp1229
I1206
asI1229
(lp1230
I8
asI1230
(lp1231
I874
asI1231
(lp1232
I309
asI1232
(lp1233
I236
asI1233
(lp1234
I529
asI1234
(lp1235
I698
aI1356
asI1235
(lp1236
I19
asI1236
(lp1237
I305
asI1237
(lp1238
I18
asI1238
(lp1239
I93
asI1239
(lp1240
I585
asI1240
(lp1241
I2
asI1241
(lp1242
I687
asI1242
(lp1243
I320
asI1243
(lp1244
I741
aI1471
asI1244
(lp1245
I678
asI1245
(lp1246
I74
asI1246
(lp1247
I893
asI1247
(lp1248
I625
asI1248
(lp1249
I1128
asI1249
(lp1250
I233
asI1250
(lp1251
I974
asI1251
(lp1252
I418
asI1252
(lp1253
I698
asI1253
(lp1254
I348
aI1256
aI1290
asI1254
(lp1255
I55
asI1255
(lp1256
I929
aI1653
asI1256
(lp1257
I1253
asI1257
(lp1258
I315
asI1258
(lp1259
I40
asI1259
(lp1260
I417
asI1260
(lp1261
I65
asI1261
(lp1262
I27
aI1372
asI1262
(lp1263
I175
asI1263
(lp1264
I282
asI1264
(lp1265
I232
asI1265
(lp1266
I0
asI1266
(lp1267
I8
asI1267
(lp1268
I929
asI1268
(lp1269
I6
asI1269
(lp1270
I1133
asI1270
(lp1271
I81
asI1271
(lp1272
I257
aI1393
asI1272
(lp1273
I617
asI1273
(lp1274
I41
asI1274
(lp1275
I366
asI1275
(lp1276
I0
asI1276
(lp1277
I121
asI1277
(lp1278
I377
aI1344
asI1278
(lp1279
I1199
asI1279
(lp1280
I9
aI1397
asI1280
(lp1281
I296
asI1281
(lp1282
I8
asI1282
(lp1283
I180
asI1283
(lp1284
I18
asI1284
(lp1285
I311
asI1285
(lp1286
I205
asI1286
(lp1287
I469
asI1287
(lp1288
I425
asI1288
(lp1289
I496
asI1289
(lp1290
I0
asI1290
(lp1291
I1253
asI1291
(lp1292
I938
asI1292
(lp1293
I12
asI1293
(lp1294
I1219
asI1294
(lp1295
I258
aI1556
asI1295
(lp1296
I190
asI1296
(lp1297
I781
asI1297
(lp1298
I516
asI1298
(lp1299
I97
asI1299
(lp1300
I121
asI1300
(lp1301
I18
asI1301
(lp1302
I250
aI1622
asI1302
(lp1303
I33
asI1303
(lp1304
I311
aI1376
asI1304
(lp1305
I62
asI1305
(lp1306
I1190
asI1306
(lp1307
I112
asI1307
(lp1308
I304
asI1308
(lp1309
I298
asI1309
(lp1310
I5
asI1310
(lp1311
I836
asI1311
(lp1312
I177
asI1312
(lp1313
I212
asI1313
(lp1314
I545
asI1314
(lp1315
I296
aI1539
asI1315
(lp1316
I57
asI1316
(lp1317
I685
asI1317
(lp1318
I948
asI1318
(lp1319
I23
asI1319
(lp1320
I27
asI1320
(lp1321
I947
asI1321
(lp1322
I404
asI1322
(lp1323
I738
asI1323
(lp1324
I96
asI1324
(lp1325
I75
asI1325
(lp1326
I296
asI1326
(lp1327
I342
asI1327
(lp1328
I16
asI1328
(lp1329
I0
asI1329
(lp1330
I755
asI1330
(lp1331
I1182
asI1331
(lp1332
I27
asI1332
(lp1333
I97
asI1333
(lp1334
I211
asI1334
(lp1335
I120
asI1335
(lp1336
I33
asI1336
(lp1337
I42
asI1337
(lp1338
I141
asI1338
(lp1339
I1043
asI1339
(lp1340
I84
asI1340
(lp1341
I132
asI1341
(lp1342
I1185
aI1469
asI1342
(lp1343
I79
asI1343
(lp1344
I97
asI1344
(lp1345
I1277
asI1345
(lp1346
I1133
asI1346
(lp1347
I941
asI1347
(lp1348
I248
asI1348
(lp1349
I65
asI1349
(lp1350
I3
asI1350
(lp1351
I590
asI1351
(lp1352
I209
asI1352
(lp1353
I8
asI1353
(lp1354
I71
asI1354
(lp1355
I496
asI1355
(lp1356
I76
asI1356
(lp1357
I1234
asI1357
(lp1358
I42
asI1358
(lp1359
I490
asI1359
(lp1360
I208
asI1360
(lp1361
I877
aI1523
asI1361
(lp1362
I1154
asI1362
(lp1363
I1067
asI1363
(lp1364
I955
asI1364
(lp1365
I42
asI1365
(lp1366
I8
asI1366
(lp1367
I1043
asI1367
(lp1368
I48
asI1368
(lp1369
I542
asI1369
(lp1370
I694
asI1370
(lp1371
I822
asI1371
(lp1372
I533
asI1372
(lp1373
I1261
asI1373
(lp1374
I80
asI1374
(lp1375
I541
asI1375
(lp1376
I97
aI1404
asI1376
(lp1377
I1303
asI1377
(lp1378
I106
asI1378
(lp1379
I365
asI1379
(lp1380
I590
asI1380
(lp1381
I355
asI1381
(lp1382
I253
asI1382
(lp1383
I755
asI1383
(lp1384
I177
asI1384
(lp1385
I846
aI1647
asI1385
(lp1386
I262
asI1386
(lp1387
I189
aI1413
asI1387
(lp1388
I1201
asI1388
(lp1389
I1183
asI1389
(lp1390
I18
asI1390
(lp1391
I597
asI1391
(lp1392
I296
asI1392
(lp1393
I5
aI1519
asI1393
(lp1394
I1271
asI1394
(lp1395
I938
asI1395
(lp1396
I1000
asI1396
(lp1397
I765
asI1397
(lp1398
I1279
asI1398
(lp1399
I884
asI1399
(lp1400
I65
aI1420
asI1400
(lp1401
I65
asI1401
(lp1402
I1037
asI1402
(lp1403
I1057
asI1403
(lp1404
I744
asI1404
(lp1405
I1375
asI1405
(lp1406
I296
asI1406
(lp1407
I886
asI1407
(lp1408
I0
asI1408
(lp1409
I30
asI1409
(lp1410
I11
aI1421
asI1410
(lp1411
I899
asI1411
(lp1412
I196
asI1412
(lp1413
I852
asI1413
(lp1414
I1386
asI1414
(lp1415
I8
asI1415
(lp1416
I611
asI1416
(lp1417
I382
asI1417
(lp1418
I769
asI1418
(lp1419
I0
asI1419
(lp1420
I380
asI1420
(lp1421
I1399
asI1421
(lp1422
I1409
asI1422
(lp1423
I8
asI1423
(lp1424
I848
aI1591
asI1424
(lp1425
I471
asI1425
(lp1426
I1067
asI1426
(lp1427
I163
asI1427
(lp1428
I78
asI1428
(lp1429
I359
asI1429
(lp1430
I788
asI1430
(lp1431
I406
asI1431
(lp1432
I402
asI1432
(lp1433
I3
asI1433
(lp1434
I8
asI1434
(lp1435
I62
asI1435
(lp1436
I253
asI1436
(lp1437
I151
asI1437
(lp1438
I138
asI1438
(lp1439
I1133
asI1439
(lp1440
I1087
asI1440
(lp1441
I970
aI1594
aI1621
asI1441
(lp1442
I1039
asI1442
(lp1443
I625
asI1443
(lp1444
I1035
asI1444
(lp1445
I40
asI1445
(lp1446
I77
asI1446
(lp1447
I377
asI1447
(lp1448
I257
asI1448
(lp1449
I43
asI1449
(lp1450
I350
asI1450
(lp1451
I10
asI1451
(lp1452
I963
aI1561
aI1630
asI1452
(lp1453
I1049
asI1453
(lp1454
I119
asI1454
(lp1455
I306
aI1627
asI1455
(lp1456
I80
asI1456
(lp1457
I173
asI1457
(lp1458
I1140
asI1458
(lp1459
I941
asI1459
(lp1460
I770
asI1460
(lp1461
I399
asI1461
(lp1462
I149
asI1462
(lp1463
I311
asI1463
(lp1464
I134
asI1464
(lp1465
I255
asI1465
(lp1466
I258
asI1466
(lp1467
I160
asI1467
(lp1468
I282
asI1468
(lp1469
I0
asI1469
(lp1470
I1341
asI1470
(lp1471
I155
asI1471
(lp1472
I1243
asI1472
(lp1473
I8
asI1473
(lp1474
I75
asI1474
(lp1475
I399
asI1475
(lp1476
I8
asI1476
(lp1477
I63
asI1477
(lp1478
I687
asI1478
(lp1479
I1147
asI1479
(lp1480
I5
asI1480
(lp1481
I9
asI1481
(lp1482
I366
asI1482
(lp1483
I603
asI1483
(lp1484
I289
asI1484
(lp1485
I40
asI1485
(lp1486
I0
asI1486
(lp1487
I954
aI1691
asI1487
(lp1488
I764
asI1488
(lp1489
I566
asI1489
(lp1490
I533
asI1490
(lp1491
I51
asI1491
(lp1492
I69
asI1492
(lp1493
I81
aI1573
asI1493
(lp1494
I80
asI1494
(lp1495
I0
asI1495
(lp1496
I547
asI1496
(lp1497
I1058
asI1497
(lp1498
I6
asI1498
(lp1499
I376
asI1499
(lp1500
I350
asI1500
(lp1501
I151
asI1501
(lp1502
I1107
asI1502
(lp1503
I1169
asI1503
(lp1504
I971
asI1504
(lp1505
I1028
asI1505
(lp1506
I40
asI1506
(lp1507
I1161
asI1507
(lp1508
I1016
asI1508
(lp1509
I30
asI1509
(lp1510
I868
asI1510
(lp1511
I62
asI1511
(lp1512
I145
asI1512
(lp1513
I348
asI1513
(lp1514
I18
asI1514
(lp1515
I860
asI1515
(lp1516
I0
asI1516
(lp1517
I315
asI1517
(lp1518
I296
asI1518
(lp1519
I125
asI1519
(lp1520
I1392
asI1520
(lp1521
I792
asI1521
(lp1522
I40
asI1522
(lp1523
I1057
aI1613
asI1523
(lp1524
I1360
asI1524
(lp1525
I0
asI1525
(lp1526
I189
asI1526
(lp1527
I278
asI1527
(lp1528
I592
asI1528
(lp1529
I65
asI1529
(lp1530
I0
aI1596
asI1530
(lp1531
I475
asI1531
(lp1532
I1115
asI1532
(lp1533
I557
asI1533
(lp1534
I765
asI1534
(lp1535
I2
asI1535
(lp1536
I69
asI1536
(lp1537
I816
asI1537
(lp1538
I780
asI1538
(lp1539
I74
asI1539
(lp1540
I1314
asI1540
(lp1541
I185
asI1541
(lp1542
I1219
asI1542
(lp1543
I1205
asI1543
(lp1544
I375
asI1544
(lp1545
I1183
asI1545
(lp1546
I139
asI1546
(lp1547
I8
asI1547
(lp1548
I432
asI1548
(lp1549
I590
asI1549
(lp1550
I565
asI1550
(lp1551
I470
aI1560
asI1551
(lp1552
I335
asI1552
(lp1553
I205
asI1553
(lp1554
I53
asI1554
(lp1555
I819
asI1555
(lp1556
I110
asI1556
(lp1557
I1294
asI1557
(lp1558
I1007
asI1558
(lp1559
I311
asI1559
(lp1560
I190
asI1560
(lp1561
I1550
asI1561
(lp1562
I1451
asI1562
(lp1563
I102
asI1563
(lp1564
I413
asI1564
(lp1565
I189
asI1565
(lp1566
I1048
asI1566
(lp1567
I965
asI1567
(lp1568
I777
asI1568
(lp1569
I651
asI1569
(lp1570
I1087
asI1570
(lp1571
I798
asI1571
(lp1572
I1062
asI1572
(lp1573
I2
asI1573
(lp1574
I1492
asI1574
(lp1575
I762
asI1575
(lp1576
I217
asI1576
(lp1577
I561
asI1577
(lp1578
I544
asI1578
(lp1579
I215
asI1579
(lp1580
I146
asI1580
(lp1581
I76
asI1581
(lp1582
I425
asI1582
(lp1583
I62
asI1583
(lp1584
I0
asI1584
(lp1585
I0
asI1585
(lp1586
I8
asI1586
(lp1587
I836
asI1587
(lp1588
I119
asI1588
(lp1589
I1132
asI1589
(lp1590
I969
asI1590
(lp1591
I474
asI1591
(lp1592
I1423
asI1592
(lp1593
I704
asI1593
(lp1594
I7
asI1594
(lp1595
I1440
asI1595
(lp1596
I121
asI1596
(lp1597
I1529
asI1597
(lp1598
I938
asI1598
(lp1599
I739
asI1599
(lp1600
I141
asI1600
(lp1601
I8
asI1601
(lp1602
I936
asI1602
(lp1603
I87
asI1603
(lp1604
I949
asI1604
(lp1605
I5
asI1605
(lp1606
I741
asI1606
(lp1607
I1067
asI1607
(lp1608
I405
asI1608
(lp1609
I368
asI1609
(lp1610
I469
asI1610
(lp1611
I8
asI1611
(lp1612
I40
asI1612
(lp1613
I42
asI1613
(lp1614
I1522
asI1614
(lp1615
I797
asI1615
(lp1616
I275
asI1616
(lp1617
I138
asI1617
(lp1618
I41
asI1618
(lp1619
I0
asI1619
(lp1620
I9
asI1620
(lp1621
I62
asI1621
(lp1622
I1440
asI1622
(lp1623
I1301
asI1623
(lp1624
I241
asI1624
(lp1625
I610
asI1625
(lp1626
I333
asI1626
(lp1627
I389
asI1627
(lp1628
I1454
asI1628
(lp1629
I3
asI1629
(lp1630
I401
asI1630
(lp1631
I1451
asI1631
(lp1632
I222
asI1632
(lp1633
I296
asI1633
(lp1634
I565
asI1634
(lp1635
I120
asI1635
(lp1636
I27
asI1636
(lp1637
I648
asI1637
(lp1638
I606
asI1638
(lp1639
I300
asI1639
(lp1640
I937
asI1640
(lp1641
I68
asI1641
(lp1642
I141
asI1642
(lp1643
I22
asI1643
(lp1644
I863
asI1644
(lp1645
I12
asI1645
(lp1646
I283
asI1646
(lp1647
I625
asI1647
(lp1648
I1384
asI1648
(lp1649
I675
aI1667
asI1649
(lp1650
I806
asI1650
(lp1651
I447
asI1651
(lp1652
I551
asI1652
(lp1653
I9
asI1653
(lp1654
I1255
asI1654
(lp1655
I0
asI1655
(lp1656
I806
asI1656
(lp1657
I324
asI1657
(lp1658
I273
asI1658
(lp1659
I0
asI1659
(lp1660
I21
asI1660
(lp1661
I524
asI1661
(lp1662
I30
asI1662
(lp1663
I673
asI1663
(lp1664
I120
asI1664
(lp1665
I687
asI1665
(lp1666
I0
asI1666
(lp1667
I567
asI1667
(lp1668
I1648
asI1668
(lp1669
I745
asI1669
(lp1670
I998
asI1670
(lp1671
I368
asI1671
(lp1672
I494
asI1672
(lp1673
I97
asI1673
(lp1674
I1114
asI1674
(lp1675
I780
asI1675
(lp1676
I3
asI1676
(lp1677
I34
asI1677
(lp1678
I227
asI1678
(lp1679
I494
aI1697
asI1679
(lp1680
I523
asI1680
(lp1681
I8
asI1681
(lp1682
I141
asI1682
(lp1683
I3
asI1683
(lp1684
I951
asI1684
(lp1685
I309
asI1685
(lp1686
I476
asI1686
(lp1687
I752
asI1687
(lp1688
I436
asI1688
(lp1689
I1199
asI1689
(lp1690
I23
asI1690
(lp1691
I192
asI1691
(lp1692
I1486
asI1692
(lp1693
I371
asI1693
(lp1694
I106
asI1694
(lp1695
I625
asI1695
(lp1696
I298
asI1696
(lp1697
I441
asI1697
(lp1698
I1678
asI1698
(lp1699
I541
asI1699
(lp1700
I497
as.