(dp0
I0
(lp1
I1
aI2
aI3
aI4
aI5
aI6
aI9
aI12
aI15
aI38
aI43
aI44
aI61
aI84
aI95
aI102
aI103
aI108
aI118
aI123
aI130
aI136
aI140
aI150
aI153
aI164
aI178
aI181
aI187
aI199
aI223
aI248
aI251
aI255
aI271
aI288
aI293
aI299
aI307
aI314
aI323
aI328
aI333
aI347
aI364
aI384
aI393
aI394
aI415
aI430
aI449
aI459
aI467
aI483
aI485
aI513
aI516
aI523
aI562
aI577
aI605
aI606
aI638
aI665
aI668
aI678
aI679
aI696
aI733
aI777
aI832
aI843
aI873
aI895
aI933
aI941
aI948
aI955
aI994
aI1000
aI1030
aI1056
aI1070
aI1104
aI1130
aI1145
aI1170
aI1223
aI1311
aI1334
aI1345
aI1374
aI1388
aI1400
aI1409
aI1411
aI1447
aI1448
aI1457
aI1546
aI1640
aI1647
aI1694
asI1
(lp2
I0
aI17
aI19
aI37
aI62
aI72
aI96
aI111
aI195
aI204
aI290
aI292
aI317
aI414
aI427
aI546
aI625
aI652
aI655
aI768
aI924
aI1436
aI1471
aI1616
asI2
(lp3
I0
aI23
aI39
aI42
aI284
aI286
aI289
aI349
aI392
aI822
asI3
(lp4
I0
aI13
aI26
aI34
aI59
aI65
aI117
aI126
aI186
aI226
aI360
aI936
aI976
aI1278
aI1375
asI4
(lp5
I0
aI10
aI18
aI31
aI76
aI91
aI106
aI119
aI120
aI180
aI191
aI277
aI370
aI417
aI420
aI472
aI500
aI688
aI729
aI796
aI876
aI944
aI969
aI1198
aI1328
aI1431
aI1586
aI1618
asI5
(lp6
I0
aI22
aI55
aI247
asI6
(lp7
I0
aI7
aI8
aI11
aI14
aI24
aI36
aI58
aI64
aI75
aI85
aI99
aI100
aI109
aI142
aI152
aI170
aI179
aI183
aI211
aI215
aI236
aI249
aI321
aI322
aI334
aI343
aI344
aI395
aI482
aI495
aI592
aI629
aI632
aI662
aI713
aI773
aI780
aI809
aI884
aI918
aI940
aI958
aI1024
aI1029
aI1043
aI1067
aI1112
aI1120
aI1169
aI1181
aI1195
aI1254
aI1266
aI1274
aI1288
aI1302
aI1460
aI1544
aI1558
aI1670
asI7
(lp8
I6
aI28
aI32
aI48
aI71
aI87
aI151
aI193
aI689
aI698
aI761
aI785
aI1021
aI1061
aI1410
aI1529
aI1554
aI1654
asI8
(lp9
I6
aI16
aI25
aI40
aI74
aI88
aI162
aI235
aI330
aI368
aI478
aI496
aI537
aI735
aI929
aI1150
aI1277
aI1394
aI1543
aI1674
aI1693
asI9
(lp10
I0
aI244
asI10
(lp11
I4
aI294
aI838
aI1333
asI11
(lp12
I6
aI260
aI278
aI281
aI371
aI373
aI403
aI557
aI591
aI1014
aI1237
aI1582
asI12
(lp13
I0
aI644
aI771
aI914
aI1511
aI1673
asI13
(lp14
I3
aI46
aI156
aI174
aI246
aI878
aI1572
asI14
(lp15
I6
aI68
aI479
asI15
(lp16
I0
aI143
aI1604
asI16
(lp17
I8
aI33
aI67
aI73
aI112
aI155
aI168
aI169
aI213
aI302
aI363
aI407
aI533
aI683
aI739
aI830
aI896
aI915
aI1275
aI1286
aI1293
aI1323
aI1332
aI1424
aI1439
aI1456
aI1510
aI1532
aI1644
aI1687
asI17
(lp18
I1
aI1284
aI1507
asI18
(lp19
I4
aI49
aI309
aI429
aI681
aI964
aI990
aI1213
aI1264
aI1505
asI19
(lp20
I1
aI20
aI21
aI27
aI29
aI30
aI45
aI51
aI54
aI70
aI78
aI82
aI134
aI171
aI188
aI194
aI196
aI245
aI265
aI348
aI354
aI402
aI446
aI457
aI460
aI508
aI576
aI588
aI620
aI676
aI682
aI712
aI717
aI766
aI815
aI885
aI888
aI891
aI978
aI987
aI1253
aI1380
aI1470
aI1483
aI1485
asI20
(lp21
I19
aI107
aI397
aI594
aI685
aI803
aI950
aI1455
asI21
(lp22
I19
aI60
aI80
aI101
aI129
aI139
aI173
aI185
aI233
aI238
aI359
aI455
aI466
aI481
aI590
aI611
aI615
aI693
aI818
aI839
aI986
aI1048
aI1057
aI1087
aI1111
aI1270
aI1379
aI1433
aI1552
aI1553
asI22
(lp23
I5
aI50
aI177
aI492
aI525
aI544
aI722
aI1227
aI1228
aI1251
aI1304
aI1489
asI23
(lp24
I2
asI24
(lp25
I6
asI25
(lp26
I8
asI26
(lp27
I3
aI133
aI747
aI1075
aI1467
asI27
(lp28
I19
aI41
aI53
aI69
aI115
aI158
aI241
aI243
aI268
aI319
aI345
aI365
aI753
aI965
aI1271
aI1283
aI1381
aI1591
asI28
(lp29
I7
aI35
aI214
aI217
aI220
aI222
aI1458
asI29
(lp30
I19
aI97
aI224
aI660
aI1229
asI30
(lp31
I19
asI31
(lp32
I4
asI32
(lp33
I7
aI105
aI125
aI131
aI261
asI33
(lp34
I16
aI57
aI329
aI578
aI730
aI1126
asI34
(lp35
I3
aI47
aI355
asI35
(lp36
I28
aI113
aI1041
aI1261
asI36
(lp37
I6
aI94
aI332
aI593
asI37
(lp38
I1
aI237
aI464
asI38
(lp39
I0
aI83
aI93
aI308
aI471
aI640
aI868
aI1050
aI1343
asI39
(lp40
I2
aI132
aI475
aI493
aI585
aI703
aI793
aI1563
asI40
(lp41
I8
aI98
aI148
aI157
aI160
aI172
aI207
aI228
aI229
aI335
aI388
aI488
aI515
aI539
aI584
aI705
aI726
aI775
aI788
aI853
aI923
aI942
aI1098
aI1106
aI1178
aI1193
aI1240
aI1339
aI1526
aI1545
aI1565
asI41
(lp42
I27
aI718
asI42
(lp43
I2
aI56
aI209
aI310
aI552
aI641
aI893
asI43
(lp44
I0
aI1548
asI44
(lp45
I0
aI79
aI206
aI316
aI670
aI850
aI943
aI1096
asI45
(lp46
I19
aI77
aI116
aI325
aI1298
aI1623
asI46
(lp47
I13
aI104
aI182
aI210
aI259
aI357
aI400
aI425
aI489
aI631
aI673
aI680
aI1675
asI47
(lp48
I34
aI52
aI480
aI596
aI1222
asI48
(lp49
I7
aI198
aI503
aI587
aI742
aI864
aI951
aI1478
asI49
(lp50
I18
aI66
aI320
aI383
aI906
aI1556
asI50
(lp51
I22
aI1176
aI1217
asI51
(lp52
I19
aI754
asI52
(lp53
I47
asI53
(lp54
I27
asI54
(lp55
I19
asI55
(lp56
I5
aI63
aI166
asI56
(lp57
I42
aI86
aI92
asI57
(lp58
I33
aI279
aI361
aI917
asI58
(lp59
I6
aI800
aI902
aI935
aI1051
aI1200
asI59
(lp60
I3
aI326
asI60
(lp61
I21
asI61
(lp62
I0
aI524
asI62
(lp63
I1
asI63
(lp64
I55
asI64
(lp65
I6
asI65
(lp66
I3
asI66
(lp67
I49
asI67
(lp68
I16
aI138
aI502
aI579
aI1611
asI68
(lp69
I14
aI250
aI428
aI812
asI69
(lp70
I27
aI571
asI70
(lp71
I19
aI147
aI176
aI275
aI836
aI1617
asI71
(lp72
I7
aI81
aI146
aI519
aI1236
aI1599
asI72
(lp73
I1
asI73
(lp74
I16
aI298
aI1192
aI1238
asI74
(lp75
I8
aI89
aI561
aI1047
aI1405
aI1488
asI75
(lp76
I6
asI76
(lp77
I4
aI782
asI77
(lp78
I45
aI834
aI993
asI78
(lp79
I19
aI121
aI165
aI1383
asI79
(lp80
I44
aI257
aI1314
aI1376
asI80
(lp81
I21
aI122
aI135
aI154
aI221
aI350
aI375
aI401
aI648
aI1219
aI1547
asI81
(lp82
I71
aI90
aI274
aI404
aI514
aI1494
asI82
(lp83
I19
aI649
aI1230
aI1419
asI83
(lp84
I38
asI84
(lp85
I0
asI85
(lp86
I6
asI86
(lp87
I56
asI87
(lp88
I7
aI202
aI657
aI701
aI704
aI992
aI1137
aI1182
aI1294
aI1464
aI1469
aI1479
asI88
(lp89
I8
asI89
(lp90
I74
asI90
(lp91
I81
aI499
asI91
(lp92
I4
aI473
asI92
(lp93
I56
asI93
(lp94
I38
asI94
(lp95
I36
asI95
(lp96
I0
aI190
aI527
aI1327
aI1350
aI1635
asI96
(lp97
I1
aI511
aI518
aI899
aI1649
aI1663
asI97
(lp98
I29
asI98
(lp99
I40
aI110
aI114
aI372
aI650
aI880
aI1352
aI1466
aI1592
asI99
(lp100
I6
aI1156
asI100
(lp101
I6
aI242
aI610
aI890
asI101
(lp102
I21
aI218
aI258
aI301
aI313
aI318
aI366
aI582
aI637
aI663
aI865
aI1578
asI102
(lp103
I0
aI264
aI555
asI103
(lp104
I0
aI1138
asI104
(lp105
I46
aI127
aI331
aI470
aI474
aI528
asI105
(lp106
I32
aI124
aI137
aI149
aI240
aI285
aI327
aI505
aI619
aI645
aI731
aI769
aI779
aI795
aI973
aI1080
aI1132
aI1269
aI1371
aI1560
aI1596
aI1619
aI1639
aI1698
asI106
(lp107
I4
asI107
(lp108
I20
aI338
aI376
aI1587
asI108
(lp109
I0
asI109
(lp110
I6
aI128
aI256
aI353
aI507
aI614
aI886
aI1117
aI1125
aI1305
asI110
(lp111
I98
asI111
(lp112
I1
aI291
aI477
aI1059
aI1427
asI112
(lp113
I16
aI437
asI113
(lp114
I35
aI200
aI219
aI227
asI114
(lp115
I98
aI583
aI745
aI1451
asI115
(lp116
I27
asI116
(lp117
I45
aI1437
aI1598
asI117
(lp118
I3
aI208
aI1549
asI118
(lp119
I0
aI311
aI468
aI549
aI595
aI599
aI826
aI1601
asI119
(lp120
I4
aI232
aI297
aI416
aI600
aI892
aI1082
asI120
(lp121
I4
aI908
asI121
(lp122
I78
asI122
(lp123
I80
asI123
(lp124
I0
aI167
aI794
asI124
(lp125
I105
asI125
(lp126
I32
asI126
(lp127
I3
aI1566
asI127
(lp128
I104
aI203
aI661
asI128
(lp129
I109
aI231
aI305
aI438
aI476
aI811
aI1144
aI1329
asI129
(lp130
I21
aI145
aI239
aI386
aI422
aI858
aI1054
asI130
(lp131
I0
asI131
(lp132
I32
asI132
(lp133
I39
aI175
aI1092
aI1280
asI133
(lp134
I26
asI134
(lp135
I19
aI558
aI1561
asI135
(lp136
I80
asI136
(lp137
I0
aI601
aI659
aI1525
asI137
(lp138
I105
aI928
asI138
(lp139
I67
aI144
aI159
aI306
aI627
aI1197
aI1214
aI1234
aI1465
aI1502
aI1676
asI139
(lp140
I21
aI212
aI419
aI728
aI1013
aI1216
aI1220
aI1492
asI140
(lp141
I0
aI141
aI189
aI253
aI1161
aI1407
asI141
(lp142
I140
aI340
aI1518
aI1534
asI142
(lp143
I6
asI143
(lp144
I15
aI1472
asI144
(lp145
I138
asI145
(lp146
I129
aI163
aI656
asI146
(lp147
I71
asI147
(lp148
I70
aI1615
asI148
(lp149
I40
asI149
(lp150
I105
aI296
asI150
(lp151
I0
asI151
(lp152
I7
aI161
aI184
aI280
aI409
aI440
aI501
aI653
aI762
aI808
aI817
aI1064
aI1084
aI1102
aI1307
aI1353
aI1425
aI1506
aI1538
asI152
(lp153
I6
aI734
asI153
(lp154
I0
aI448
asI154
(lp155
I80
aI628
aI778
aI907
aI939
aI1184
aI1356
asI155
(lp156
I16
aI205
aI916
aI1173
aI1316
asI156
(lp157
I13
aI225
aI536
aI677
aI719
aI1077
aI1158
aI1309
aI1391
asI157
(lp158
I40
asI158
(lp159
I27
aI362
aI930
aI1290
asI159
(lp160
I138
aI287
aI1317
asI160
(lp161
I40
aI197
aI1292
asI161
(lp162
I151
aI234
aI542
aI824
asI162
(lp163
I8
aI433
asI163
(lp164
I145
aI909
aI1402
aI1607
asI164
(lp165
I0
aI324
aI408
aI616
asI165
(lp166
I78
aI399
aI695
asI166
(lp167
I55
aI1642
aI1684
asI167
(lp168
I123
aI1692
asI168
(lp169
I16
aI458
aI1330
asI169
(lp170
I16
aI1524
asI170
(lp171
I6
aI216
aI379
aI827
aI913
aI949
aI1559
asI171
(lp172
I19
asI172
(lp173
I40
aI530
asI173
(lp174
I21
aI406
aI1612
asI174
(lp175
I13
asI175
(lp176
I132
aI540
aI1603
asI176
(lp177
I70
aI486
aI953
aI1245
asI177
(lp178
I22
asI178
(lp179
I0
asI179
(lp180
I6
aI756
aI837
asI180
(lp181
I4
aI1493
asI181
(lp182
I0
aI339
aI434
aI490
aI1008
asI182
(lp183
I46
aI426
aI869
asI183
(lp184
I6
aI1100
asI184
(lp185
I151
aI774
aI1091
aI1124
aI1459
asI185
(lp186
I21
aI192
aI201
aI456
aI538
aI751
aI1406
aI1435
aI1454
asI186
(lp187
I3
aI411
aI877
aI1297
aI1576
asI187
(lp188
I0
aI367
aI418
aI1243
aI1667
asI188
(lp189
I19
asI189
(lp190
I140
aI1666
asI190
(lp191
I95
aI702
aI1300
asI191
(lp192
I4
asI192
(lp193
I185
aI266
aI270
aI336
aI1066
asI193
(lp194
I7
aI252
aI262
aI303
aI342
aI608
aI1083
aI1372
asI194
(lp195
I19
asI195
(lp196
I1
aI352
aI453
aI634
aI805
aI1009
aI1190
aI1341
aI1573
aI1626
asI196
(lp197
I19
asI197
(lp198
I160
aI1652
asI198
(lp199
I48
aI573
asI199
(lp200
I0
asI200
(lp201
I113
asI201
(lp202
I185
asI202
(lp203
I87
aI642
asI203
(lp204
I127
aI643
asI204
(lp205
I1
aI569
asI205
(lp206
I155
aI380
aI1637
asI206
(lp207
I44
aI938
asI207
(lp208
I40
asI208
(lp209
I117
asI209
(lp210
I42
asI210
(lp211
I46
aI283
aI312
aI469
aI831
aI932
aI1058
aI1386
asI211
(lp212
I6
asI212
(lp213
I139
aI1194
asI213
(lp214
I16
aI580
aI667
asI214
(lp215
I28
aI521
asI215
(lp216
I6
asI216
(lp217
I170
aI230
asI217
(lp218
I28
aI1631
asI218
(lp219
I101
asI219
(lp220
I113
aI692
aI921
asI220
(lp221
I28
aI276
asI221
(lp222
I80
aI901
aI952
aI961
aI1690
asI222
(lp223
I28
aI398
aI690
aI1015
aI1308
asI223
(lp224
I0
asI224
(lp225
I29
aI522
aI1063
asI225
(lp226
I156
aI267
asI226
(lp227
I3
aI435
aI504
aI556
aI1231
asI227
(lp228
I113
aI444
aI700
aI806
aI883
aI1620
asI228
(lp229
I40
asI229
(lp230
I40
aI269
aI586
aI967
aI1090
asI230
(lp231
I216
aI710
aI1680
asI231
(lp232
I128
aI263
aI904
aI1005
asI232
(lp233
I119
aI872
asI233
(lp234
I21
aI369
aI526
aI531
aI1540
asI234
(lp235
I161
aI273
asI235
(lp236
I8
aI550
asI236
(lp237
I6
aI484
asI237
(lp238
I37
asI238
(lp239
I21
asI239
(lp240
I129
asI240
(lp241
I105
aI254
aI431
asI241
(lp242
I27
asI242
(lp243
I100
aI781
aI1335
aI1416
aI1484
asI243
(lp244
I27
aI1143
asI244
(lp245
I9
aI1071
asI245
(lp246
I19
aI1221
asI246
(lp247
I13
aI461
aI647
asI247
(lp248
I5
aI984
asI248
(lp249
I0
aI905
asI249
(lp250
I6
aI541
aI857
aI859
aI996
aI1421
aI1621
asI250
(lp251
I68
aI1001
aI1346
asI251
(lp252
I0
aI295
aI1512
asI252
(lp253
I193
asI253
(lp254
I140
aI725
aI854
aI1157
aI1318
aI1395
aI1401
asI254
(lp255
I240
asI255
(lp256
I0
aI543
asI256
(lp257
I109
asI257
(lp258
I79
asI258
(lp259
I101
aI979
asI259
(lp260
I46
asI260
(lp261
I11
asI261
(lp262
I32
aI272
aI675
aI799
aI1358
asI262
(lp263
I193
aI378
aI797
aI1078
asI263
(lp264
I231
aI385
aI770
aI998
aI1044
asI264
(lp265
I102
aI609
aI743
asI265
(lp266
I19
asI266
(lp267
I192
asI267
(lp268
I225
asI268
(lp269
I27
aI517
aI548
aI1055
aI1085
aI1285
aI1513
asI269
(lp270
I229
aI337
aI613
aI792
aI1390
asI270
(lp271
I192
asI271
(lp272
I0
asI272
(lp273
I261
asI273
(lp274
I234
aI423
aI1589
asI274
(lp275
I81
aI381
aI452
aI1246
aI1501
aI1551
asI275
(lp276
I70
asI276
(lp277
I220
aI494
asI277
(lp278
I4
asI278
(lp279
I11
aI300
asI279
(lp280
I57
asI280
(lp281
I151
aI282
aI989
aI1583
asI281
(lp282
I11
asI282
(lp283
I280
aI563
aI565
aI1002
aI1342
asI283
(lp284
I210
asI284
(lp285
I2
aI674
aI937
aI968
aI1052
aI1131
asI285
(lp286
I105
aI356
aI1141
asI286
(lp287
I2
asI287
(lp288
I159
aI636
aI931
asI288
(lp289
I0
aI450
aI1108
asI289
(lp290
I2
aI1010
asI290
(lp291
I1
aI566
asI291
(lp292
I111
aI828
aI1522
asI292
(lp293
I1
aI315
aI382
aI920
aI1079
asI293
(lp294
I0
aI304
asI294
(lp295
I10
aI925
aI1571
asI295
(lp296
I251
asI296
(lp297
I149
asI297
(lp298
I119
aI764
asI298
(lp299
I73
asI299
(lp300
I0
aI1370
asI300
(lp301
I278
asI301
(lp302
I101
asI302
(lp303
I16
aI497
aI945
aI966
aI1146
aI1614
asI303
(lp304
I193
aI443
aI654
aI855
aI882
asI304
(lp305
I293
aI879
asI305
(lp306
I128
aI622
aI1602
asI306
(lp307
I138
asI307
(lp308
I0
asI308
(lp309
I38
asI309
(lp310
I18
asI310
(lp311
I42
aI498
aI991
aI1313
asI311
(lp312
I118
asI312
(lp313
I210
aI506
asI313
(lp314
I101
asI314
(lp315
I0
aI560
asI315
(lp316
I292
aI1225
asI316
(lp317
I44
asI317
(lp318
I1
asI318
(lp319
I101
aI346
aI351
aI396
aI554
aI910
aI1018
asI319
(lp320
I27
aI436
aI462
aI1160
asI320
(lp321
I49
aI441
asI321
(lp322
I6
aI374
aI1121
asI322
(lp323
I6
aI341
aI757
aI810
aI956
asI323
(lp324
I0
aI405
aI791
aI1099
asI324
(lp325
I164
asI325
(lp326
I45
aI410
aI639
aI776
aI963
aI974
aI1068
aI1166
aI1672
asI326
(lp327
I59
asI327
(lp328
I105
aI684
asI328
(lp329
I0
asI329
(lp330
I33
asI330
(lp331
I8
asI331
(lp332
I104
aI358
aI575
aI626
aI804
aI1129
aI1295
aI1468
aI1530
asI332
(lp333
I36
asI333
(lp334
I0
aI1177
aI1357
asI334
(lp335
I6
asI335
(lp336
I40
aI985
aI1127
aI1165
aI1282
asI336
(lp337
I192
asI337
(lp338
I269
asI338
(lp339
I107
asI339
(lp340
I181
aI898
asI340
(lp341
I141
asI341
(lp342
I322
asI342
(lp343
I193
aI439
aI1119
asI343
(lp344
I6
asI344
(lp345
I6
aI421
asI345
(lp346
I27
asI346
(lp347
I318
aI750
asI347
(lp348
I0
asI348
(lp349
I19
asI349
(lp350
I2
asI350
(lp351
I80
aI463
aI767
aI999
aI1026
aI1355
asI351
(lp352
I318
asI352
(lp353
I195
aI900
aI1020
aI1653
asI353
(lp354
I109
asI354
(lp355
I19
asI355
(lp356
I34
aI390
asI356
(lp357
I285
aI424
asI357
(lp358
I46
asI358
(lp359
I331
asI359
(lp360
I21
aI982
asI360
(lp361
I3
aI574
asI361
(lp362
I57
aI387
asI362
(lp363
I158
asI363
(lp364
I16
aI391
aI727
aI1004
asI364
(lp365
I0
aI451
asI365
(lp366
I27
aI709
asI366
(lp367
I101
aI1695
asI367
(lp368
I187
asI368
(lp369
I8
asI369
(lp370
I233
aI970
aI1661
asI370
(lp371
I4
aI412
aI635
asI371
(lp372
I11
asI372
(lp373
I98
aI377
aI570
asI373
(lp374
I11
asI374
(lp375
I321
aI720
aI894
aI1324
asI375
(lp376
I80
aI509
asI376
(lp377
I107
asI377
(lp378
I372
aI1109
asI378
(lp379
I262
asI379
(lp380
I170
asI380
(lp381
I205
aI1521
asI381
(lp382
I274
aI553
asI382
(lp383
I292
aI706
asI383
(lp384
I49
aI789
aI866
aI927
aI1384
aI1449
aI1606
asI384
(lp385
I0
aI618
asI385
(lp386
I263
aI413
aI445
aI746
aI807
aI860
aI1361
asI386
(lp387
I129
aI798
asI387
(lp388
I361
aI389
aI454
aI723
asI388
(lp389
I40
asI389
(lp390
I387
aI646
aI847
aI1537
asI390
(lp391
I355
aI714
asI391
(lp392
I363
asI392
(lp393
I2
asI393
(lp394
I0
aI971
asI394
(lp395
I0
asI395
(lp396
I6
aI512
aI833
asI396
(lp397
I318
asI397
(lp398
I20
aI1389
asI398
(lp399
I222
asI399
(lp400
I165
aI535
aI567
asI400
(lp401
I46
asI401
(lp402
I80
aI711
aI816
asI402
(lp403
I19
asI403
(lp404
I11
asI404
(lp405
I81
asI405
(lp406
I323
aI581
aI666
asI406
(lp407
I173
aI551
aI568
aI1159
asI407
(lp408
I16
asI408
(lp409
I164
aI1072
asI409
(lp410
I151
aI442
aI699
aI790
aI1414
asI410
(lp411
I325
aI786
aI954
asI411
(lp412
I186
asI412
(lp413
I370
aI664
aI813
asI413
(lp414
I385
aI1148
asI414
(lp415
I1
aI748
aI1262
asI415
(lp416
I0
aI1114
asI416
(lp417
I119
aI760
aI1272
asI417
(lp418
I4
aI1065
asI418
(lp419
I187
asI419
(lp420
I139
aI763
asI420
(lp421
I4
aI432
aI604
aI849
aI1033
aI1321
aI1396
asI421
(lp422
I344
aI1636
asI422
(lp423
I129
aI1179
asI423
(lp424
I273
aI1094
asI424
(lp425
I356
aI1128
asI425
(lp426
I46
aI1035
asI426
(lp427
I182
aI1040
asI427
(lp428
I1
asI428
(lp429
I68
aI487
aI697
aI844
aI1377
asI429
(lp430
I18
aI841
aI1062
aI1180
asI430
(lp431
I0
aI1191
asI431
(lp432
I240
aI547
aI559
aI598
aI903
aI934
aI1122
aI1595
asI432
(lp433
I420
asI433
(lp434
I162
asI434
(lp435
I181
asI435
(lp436
I226
asI436
(lp437
I319
asI437
(lp438
I112
aI658
aI694
aI926
aI1354
asI438
(lp439
I128
aI995
aI1183
asI439
(lp440
I342
aI510
aI1175
asI440
(lp441
I151
aI447
aI669
aI851
asI441
(lp442
I320
asI442
(lp443
I409
aI529
aI612
aI1172
asI443
(lp444
I303
aI520
asI444
(lp445
I227
asI445
(lp446
I385
asI446
(lp447
I19
asI447
(lp448
I440
aI545
asI448
(lp449
I153
asI449
(lp450
I0
aI1490
asI450
(lp451
I288
asI451
(lp452
I364
aI602
asI452
(lp453
I274
aI1232
asI453
(lp454
I195
aI491
asI454
(lp455
I387
asI455
(lp456
I21
aI465
aI1519
aI1542
asI456
(lp457
I185
asI457
(lp458
I19
aI889
aI1031
aI1205
asI458
(lp459
I168
aI597
asI459
(lp460
I0
aI1281
aI1444
asI460
(lp461
I19
asI461
(lp462
I246
aI1491
asI462
(lp463
I319
aI1003
asI463
(lp464
I350
asI464
(lp465
I37
aI741
asI465
(lp466
I455
asI466
(lp467
I21
asI467
(lp468
I0
aI848
aI981
asI468
(lp469
I118
asI469
(lp470
I210
aI1022
aI1463
asI470
(lp471
I104
aI1657
asI471
(lp472
I38
asI472
(lp473
I4
aI1139
asI473
(lp474
I91
asI474
(lp475
I104
asI475
(lp476
I39
asI476
(lp477
I128
aI1202
asI477
(lp478
I111
aI630
aI651
aI1027
asI478
(lp479
I8
asI479
(lp480
I14
asI480
(lp481
I47
aI977
aI1306
aI1417
asI481
(lp482
I21
asI482
(lp483
I6
aI1046
aI1142
aI1204
asI483
(lp484
I0
aI1103
asI484
(lp485
I236
asI485
(lp486
I0
aI532
aI671
aI759
aI840
aI842
aI975
aI1038
aI1428
asI486
(lp487
I176
aI755
asI487
(lp488
I428
aI1276
asI488
(lp489
I40
asI489
(lp490
I46
aI784
aI946
asI490
(lp491
I181
asI491
(lp492
I453
asI492
(lp493
I22
aI617
asI493
(lp494
I39
aI1688
asI494
(lp495
I276
asI495
(lp496
I6
asI496
(lp497
I8
aI534
asI497
(lp498
I302
asI498
(lp499
I310
aI1517
asI499
(lp500
I90
aI623
aI897
aI1242
aI1445
aI1570
aI1634
asI500
(lp501
I4
asI501
(lp502
I151
aI1430
asI502
(lp503
I67
asI503
(lp504
I48
asI504
(lp505
I226
asI505
(lp506
I105
aI1007
aI1255
asI506
(lp507
I312
aI1349
asI507
(lp508
I109
aI875
aI1036
asI508
(lp509
I19
asI509
(lp510
I375
aI607
asI510
(lp511
I439
aI1331
asI511
(lp512
I96
aI783
asI512
(lp513
I395
asI513
(lp514
I0
aI1211
asI514
(lp515
I81
asI515
(lp516
I40
asI516
(lp517
I0
asI517
(lp518
I268
aI624
aI1351
aI1426
asI518
(lp519
I96
asI519
(lp520
I71
asI520
(lp521
I443
aI1258
asI521
(lp522
I214
aI572
aI1107
asI522
(lp523
I224
aI738
asI523
(lp524
I0
aI1541
asI524
(lp525
I61
asI525
(lp526
I22
asI526
(lp527
I233
aI758
aI1208
aI1664
asI527
(lp528
I95
asI528
(lp529
I104
aI825
asI529
(lp530
I442
asI530
(lp531
I172
asI531
(lp532
I233
asI532
(lp533
I485
aI672
asI533
(lp534
I16
asI534
(lp535
I496
asI535
(lp536
I399
aI621
aI721
aI1028
asI536
(lp537
I156
asI537
(lp538
I8
asI538
(lp539
I185
aI564
aI589
aI708
aI724
aI1535
aI1645
asI539
(lp540
I40
asI540
(lp541
I175
asI541
(lp542
I249
asI542
(lp543
I161
asI543
(lp544
I255
asI544
(lp545
I22
aI1257
asI545
(lp546
I447
asI546
(lp547
I1
aI1069
asI547
(lp548
I431
asI548
(lp549
I268
aI1032
asI549
(lp550
I118
asI550
(lp551
I235
aI1185
asI551
(lp552
I406
asI552
(lp553
I42
asI553
(lp554
I381
asI554
(lp555
I318
aI1273
asI555
(lp556
I102
aI732
aI1279
aI1584
asI556
(lp557
I226
aI887
asI557
(lp558
I11
aI1073
aI1291
asI558
(lp559
I134
aI716
asI559
(lp560
I431
asI560
(lp561
I314
asI561
(lp562
I74
aI1265
asI562
(lp563
I0
aI1577
asI563
(lp564
I282
asI564
(lp565
I538
asI565
(lp566
I282
aI603
asI566
(lp567
I290
aI819
aI1368
aI1656
asI567
(lp568
I399
asI568
(lp569
I406
asI569
(lp570
I204
asI570
(lp571
I372
aI749
asI571
(lp572
I69
aI1224
asI572
(lp573
I521
asI573
(lp574
I198
asI574
(lp575
I360
asI575
(lp576
I331
asI576
(lp577
I19
asI577
(lp578
I0
asI578
(lp579
I33
asI579
(lp580
I67
aI856
aI1163
asI580
(lp581
I213
aI1347
asI581
(lp582
I405
asI582
(lp583
I101
aI983
asI583
(lp584
I114
aI1218
asI584
(lp585
I40
asI585
(lp586
I39
asI586
(lp587
I229
aI1168
aI1497
aI1632
asI587
(lp588
I48
aI829
aI861
asI588
(lp589
I19
asI589
(lp590
I538
asI590
(lp591
I21
asI591
(lp592
I11
asI592
(lp593
I6
asI593
(lp594
I36
aI686
aI752
aI1393
aI1568
asI594
(lp595
I20
asI595
(lp596
I118
asI596
(lp597
I47
aI1398
aI1610
asI597
(lp598
I458
asI598
(lp599
I431
aI1588
asI599
(lp600
I118
aI870
aI988
aI1413
asI600
(lp601
I119
aI691
aI874
asI601
(lp602
I136
asI602
(lp603
I451
aI787
asI603
(lp604
I565
asI604
(lp605
I420
aI1049
aI1403
asI605
(lp606
I0
aI1134
asI606
(lp607
I0
asI607
(lp608
I509
asI608
(lp609
I193
aI1023
asI609
(lp610
I264
asI610
(lp611
I100
asI611
(lp612
I21
asI612
(lp613
I442
aI919
asI613
(lp614
I269
asI614
(lp615
I109
asI615
(lp616
I21
aI633
aI1016
aI1408
asI616
(lp617
I164
asI617
(lp618
I492
asI618
(lp619
I384
aI823
asI619
(lp620
I105
aI1686
asI620
(lp621
I19
asI621
(lp622
I535
asI622
(lp623
I305
aI1215
asI623
(lp624
I499
aI737
aI1527
aI1665
asI624
(lp625
I517
asI625
(lp626
I1
asI626
(lp627
I331
asI627
(lp628
I138
aI1140
asI628
(lp629
I154
asI629
(lp630
I6
asI630
(lp631
I477
asI631
(lp632
I46
asI632
(lp633
I6
aI1256
asI633
(lp634
I615
aI687
aI1585
asI634
(lp635
I195
aI1362
aI1580
asI635
(lp636
I370
aI821
asI636
(lp637
I287
asI637
(lp638
I101
asI638
(lp639
I0
aI1210
asI639
(lp640
I325
asI640
(lp641
I38
aI707
aI1042
asI641
(lp642
I42
asI642
(lp643
I202
asI643
(lp644
I203
asI644
(lp645
I12
asI645
(lp646
I105
aI740
asI646
(lp647
I389
asI647
(lp648
I246
asI648
(lp649
I80
asI649
(lp650
I82
aI1011
aI1149
asI650
(lp651
I98
asI651
(lp652
I477
aI1528
aI1539
aI1677
asI652
(lp653
I1
asI653
(lp654
I151
asI654
(lp655
I303
aI1260
aI1550
asI655
(lp656
I1
asI656
(lp657
I145
asI657
(lp658
I87
aI814
aI1296
asI658
(lp659
I437
asI659
(lp660
I136
asI660
(lp661
I29
asI661
(lp662
I127
asI662
(lp663
I6
asI663
(lp664
I101
aI852
aI1441
aI1516
aI1608
asI664
(lp665
I412
asI665
(lp666
I0
aI1203
asI666
(lp667
I405
asI667
(lp668
I213
aI1101
asI668
(lp669
I0
aI801
aI1209
aI1259
asI669
(lp670
I440
asI670
(lp671
I44
aI835
asI671
(lp672
I485
asI672
(lp673
I532
asI673
(lp674
I46
asI674
(lp675
I284
asI675
(lp676
I261
asI676
(lp677
I19
aI1689
asI677
(lp678
I156
asI678
(lp679
I0
aI846
aI1196
aI1239
aI1442
aI1486
asI679
(lp680
I0
asI680
(lp681
I46
asI681
(lp682
I18
asI682
(lp683
I19
asI683
(lp684
I16
asI684
(lp685
I327
asI685
(lp686
I20
asI686
(lp687
I593
asI687
(lp688
I633
asI688
(lp689
I4
aI1303
aI1613
asI689
(lp690
I7
asI690
(lp691
I222
asI691
(lp692
I600
aI1344
asI692
(lp693
I219
asI693
(lp694
I21
aI1167
asI694
(lp695
I437
aI736
asI695
(lp696
I165
aI715
aI960
asI696
(lp697
I0
asI697
(lp698
I428
asI698
(lp699
I7
asI699
(lp700
I409
asI700
(lp701
I227
aI1081
asI701
(lp702
I87
asI702
(lp703
I190
aI863
aI1474
asI703
(lp704
I39
aI744
aI1105
asI704
(lp705
I87
asI705
(lp706
I40
aI1116
aI1440
asI706
(lp707
I382
asI707
(lp708
I640
aI1053
asI708
(lp709
I538
asI709
(lp710
I365
asI710
(lp711
I230
asI711
(lp712
I401
asI712
(lp713
I19
asI713
(lp714
I6
aI922
aI1369
asI714
(lp715
I390
asI715
(lp716
I695
asI716
(lp717
I558
asI717
(lp718
I19
asI718
(lp719
I41
asI719
(lp720
I156
aI980
aI1206
aI1473
asI720
(lp721
I374
asI721
(lp722
I535
asI722
(lp723
I22
aI820
asI723
(lp724
I387
asI724
(lp725
I538
aI802
asI725
(lp726
I253
aI959
asI726
(lp727
I40
aI881
aI1135
asI727
(lp728
I363
asI728
(lp729
I139
aI1162
aI1651
asI729
(lp730
I4
asI730
(lp731
I33
aI765
asI731
(lp732
I105
aI772
asI732
(lp733
I555
asI733
(lp734
I0
asI734
(lp735
I152
aI871
aI1590
asI735
(lp736
I8
asI736
(lp737
I694
asI737
(lp738
I623
asI738
(lp739
I522
asI739
(lp740
I16
asI740
(lp741
I645
asI741
(lp742
I464
asI742
(lp743
I48
aI1432
aI1567
asI743
(lp744
I264
asI744
(lp745
I703
asI745
(lp746
I114
asI746
(lp747
I385
asI747
(lp748
I26
aI1434
asI748
(lp749
I414
aI1110
aI1325
aI1648
asI749
(lp750
I570
asI750
(lp751
I346
aI1624
asI751
(lp752
I185
asI752
(lp753
I593
asI753
(lp754
I27
asI754
(lp755
I51
asI755
(lp756
I486
asI756
(lp757
I179
asI757
(lp758
I322
asI758
(lp759
I526
asI759
(lp760
I485
asI760
(lp761
I416
asI761
(lp762
I7
aI1037
asI762
(lp763
I151
asI763
(lp764
I419
asI764
(lp765
I297
asI765
(lp766
I730
asI766
(lp767
I19
asI767
(lp768
I350
asI768
(lp769
I1
asI769
(lp770
I105
asI770
(lp771
I263
asI771
(lp772
I12
aI1152
aI1475
asI772
(lp773
I731
asI773
(lp774
I6
asI774
(lp775
I184
asI775
(lp776
I40
aI1012
asI776
(lp777
I325
aI1438
aI1499
asI777
(lp778
I0
asI778
(lp779
I154
asI779
(lp780
I105
asI780
(lp781
I6
asI781
(lp782
I242
asI782
(lp783
I76
asI783
(lp784
I511
asI784
(lp785
I489
asI785
(lp786
I7
asI786
(lp787
I410
asI787
(lp788
I602
asI788
(lp789
I40
asI789
(lp790
I383
asI790
(lp791
I409
asI791
(lp792
I323
asI792
(lp793
I269
aI1633
asI793
(lp794
I39
asI794
(lp795
I123
asI795
(lp796
I105
asI796
(lp797
I4
asI797
(lp798
I262
asI798
(lp799
I386
aI1025
aI1074
aI1147
asI799
(lp800
I261
asI800
(lp801
I58
asI801
(lp802
I668
asI802
(lp803
I724
asI803
(lp804
I20
asI804
(lp805
I331
asI805
(lp806
I195
asI806
(lp807
I227
asI807
(lp808
I385
asI808
(lp809
I151
asI809
(lp810
I6
asI810
(lp811
I322
asI811
(lp812
I128
asI812
(lp813
I68
aI912
aI1188
asI813
(lp814
I412
aI1359
aI1508
asI814
(lp815
I657
asI815
(lp816
I19
asI816
(lp817
I401
aI1412
asI817
(lp818
I151
asI818
(lp819
I21
asI819
(lp820
I566
asI820
(lp821
I722
asI821
(lp822
I635
asI822
(lp823
I2
asI823
(lp824
I618
asI824
(lp825
I161
asI825
(lp826
I528
aI845
aI1531
asI826
(lp827
I118
asI827
(lp828
I170
asI828
(lp829
I291
aI1006
aI1320
aI1523
aI1555
asI829
(lp830
I587
asI830
(lp831
I16
asI831
(lp832
I210
asI832
(lp833
I0
asI833
(lp834
I395
aI911
aI1199
asI834
(lp835
I77
asI835
(lp836
I670
asI836
(lp837
I70
aI997
asI837
(lp838
I179
aI1641
asI838
(lp839
I10
aI867
asI839
(lp840
I21
asI840
(lp841
I485
asI841
(lp842
I429
asI842
(lp843
I485
asI843
(lp844
I0
aI862
aI1367
asI844
(lp845
I428
asI845
(lp846
I825
asI846
(lp847
I678
asI847
(lp848
I389
asI848
(lp849
I467
asI849
(lp850
I420
asI850
(lp851
I44
asI851
(lp852
I440
asI852
(lp853
I663
aI947
aI1039
aI1187
aI1247
aI1337
asI853
(lp854
I40
asI854
(lp855
I253
aI1076
aI1579
asI855
(lp856
I303
aI1360
asI856
(lp857
I579
asI857
(lp858
I249
asI858
(lp859
I129
asI859
(lp860
I249
aI1249
asI860
(lp861
I385
asI861
(lp862
I587
aI1235
asI862
(lp863
I843
asI863
(lp864
I702
asI864
(lp865
I48
asI865
(lp866
I101
asI866
(lp867
I383
asI867
(lp868
I838
asI868
(lp869
I38
asI869
(lp870
I182
asI870
(lp871
I599
asI871
(lp872
I734
asI872
(lp873
I232
aI1248
asI873
(lp874
I0
asI874
(lp875
I600
aI1574
asI875
(lp876
I507
asI876
(lp877
I4
asI877
(lp878
I186
asI878
(lp879
I13
asI879
(lp880
I304
asI880
(lp881
I98
aI1481
asI881
(lp882
I726
asI882
(lp883
I303
aI1495
asI883
(lp884
I227
asI884
(lp885
I6
asI885
(lp886
I19
asI886
(lp887
I109
aI1212
asI887
(lp888
I556
aI972
aI1174
asI888
(lp889
I19
asI889
(lp890
I457
asI890
(lp891
I100
asI891
(lp892
I19
asI892
(lp893
I119
aI1034
asI893
(lp894
I42
asI894
(lp895
I374
asI895
(lp896
I0
asI896
(lp897
I16
asI897
(lp898
I499
aI1310
asI898
(lp899
I339
asI899
(lp900
I96
asI900
(lp901
I352
asI901
(lp902
I221
asI902
(lp903
I58
asI903
(lp904
I431
asI904
(lp905
I231
asI905
(lp906
I248
aI1250
asI906
(lp907
I49
asI907
(lp908
I154
asI908
(lp909
I120
asI909
(lp910
I163
asI910
(lp911
I318
asI911
(lp912
I833
asI912
(lp913
I812
aI1151
aI1287
aI1312
aI1679
asI913
(lp914
I170
asI914
(lp915
I12
aI1017
aI1154
asI915
(lp916
I16
asI916
(lp917
I155
asI917
(lp918
I57
asI918
(lp919
I6
aI1366
asI919
(lp920
I612
asI920
(lp921
I292
asI921
(lp922
I219
asI922
(lp923
I713
asI923
(lp924
I40
asI924
(lp925
I1
asI925
(lp926
I294
aI1628
asI926
(lp927
I437
aI1060
aI1226
asI927
(lp928
I383
asI928
(lp929
I137
asI929
(lp930
I8
asI930
(lp931
I158
asI931
(lp932
I287
asI932
(lp933
I210
asI933
(lp934
I0
asI934
(lp935
I431
asI935
(lp936
I58
asI936
(lp937
I3
aI1089
aI1477
asI937
(lp938
I284
asI938
(lp939
I206
aI962
aI1301
aI1461
aI1515
asI939
(lp940
I154
aI1322
asI940
(lp941
I6
asI941
(lp942
I0
asI942
(lp943
I40
aI1299
asI943
(lp944
I44
asI944
(lp945
I4
asI945
(lp946
I302
aI957
asI946
(lp947
I489
asI947
(lp948
I852
aI1118
aI1594
asI948
(lp949
I0
asI949
(lp950
I170
asI950
(lp951
I20
asI951
(lp952
I48
asI952
(lp953
I221
asI953
(lp954
I176
asI954
(lp955
I410
asI955
(lp956
I0
aI1348
asI956
(lp957
I322
asI957
(lp958
I945
aI1691
asI958
(lp959
I6
aI1019
asI959
(lp960
I725
asI960
(lp961
I695
asI961
(lp962
I221
asI962
(lp963
I938
aI1113
asI963
(lp964
I325
aI1241
asI964
(lp965
I18
asI965
(lp966
I27
asI966
(lp967
I302
asI967
(lp968
I229
asI968
(lp969
I284
asI969
(lp970
I4
asI970
(lp971
I369
aI1385
asI971
(lp972
I393
asI972
(lp973
I887
asI973
(lp974
I105
asI974
(lp975
I325
aI1498
asI975
(lp976
I485
asI976
(lp977
I3
aI1136
asI977
(lp978
I480
asI978
(lp979
I19
asI979
(lp980
I258
aI1462
asI980
(lp981
I719
asI981
(lp982
I467
aI1480
asI982
(lp983
I359
aI1600
asI983
(lp984
I582
aI1093
asI984
(lp985
I247
asI985
(lp986
I335
asI986
(lp987
I21
asI987
(lp988
I19
asI988
(lp989
I599
asI989
(lp990
I280
asI990
(lp991
I18
asI991
(lp992
I310
asI992
(lp993
I87
asI993
(lp994
I77
asI994
(lp995
I0
asI995
(lp996
I438
asI996
(lp997
I249
asI997
(lp998
I836
asI998
(lp999
I263
asI999
(lp1000
I350
asI1000
(lp1001
I0
asI1001
(lp1002
I250
asI1002
(lp1003
I282
asI1003
(lp1004
I462
aI1399
asI1004
(lp1005
I363
asI1005
(lp1006
I231
asI1006
(lp1007
I828
aI1365
aI1625
aI1655
asI1007
(lp1008
I505
asI1008
(lp1009
I181
asI1009
(lp1010
I195
asI1010
(lp1011
I289
asI1011
(lp1012
I649
asI1012
(lp1013
I775
asI1013
(lp1014
I139
aI1189
asI1014
(lp1015
I11
aI1155
asI1015
(lp1016
I222
asI1016
(lp1017
I615
asI1017
(lp1018
I914
asI1018
(lp1019
I318
asI1019
(lp1020
I958
asI1020
(lp1021
I352
aI1315
asI1021
(lp1022
I7
asI1022
(lp1023
I469
asI1023
(lp1024
I608
asI1024
(lp1025
I6
aI1115
asI1025
(lp1026
I798
asI1026
(lp1027
I350
aI1153
asI1027
(lp1028
I477
asI1028
(lp1029
I535
asI1029
(lp1030
I6
asI1030
(lp1031
I0
aI1088
aI1186
asI1031
(lp1032
I457
asI1032
(lp1033
I548
asI1033
(lp1034
I420
asI1034
(lp1035
I892
aI1045
asI1035
(lp1036
I425
asI1036
(lp1037
I507
asI1037
(lp1038
I761
asI1038
(lp1039
I485
asI1039
(lp1040
I852
asI1040
(lp1041
I426
asI1041
(lp1042
I35
aI1668
asI1042
(lp1043
I640
asI1043
(lp1044
I6
aI1097
aI1336
asI1044
(lp1045
I263
asI1045
(lp1046
I1034
asI1046
(lp1047
I482
asI1047
(lp1048
I74
asI1048
(lp1049
I21
asI1049
(lp1050
I604
asI1050
(lp1051
I38
asI1051
(lp1052
I58
asI1052
(lp1053
I284
asI1053
(lp1054
I707
asI1054
(lp1055
I129
aI1504
asI1055
(lp1056
I268
asI1056
(lp1057
I0
aI1095
asI1057
(lp1058
I21
aI1397
aI1685
asI1058
(lp1059
I210
asI1059
(lp1060
I111
asI1060
(lp1061
I926
asI1061
(lp1062
I7
asI1062
(lp1063
I429
asI1063
(lp1064
I224
aI1520
asI1064
(lp1065
I151
aI1263
asI1065
(lp1066
I417
asI1066
(lp1067
I192
asI1067
(lp1068
I6
asI1068
(lp1069
I325
aI1418
asI1069
(lp1070
I546
asI1070
(lp1071
I0
asI1071
(lp1072
I244
asI1072
(lp1073
I408
asI1073
(lp1074
I557
asI1074
(lp1075
I798
asI1075
(lp1076
I26
asI1076
(lp1077
I854
asI1077
(lp1078
I156
asI1078
(lp1079
I262
asI1079
(lp1080
I292
asI1080
(lp1081
I105
asI1081
(lp1082
I700
asI1082
(lp1083
I119
asI1083
(lp1084
I193
asI1084
(lp1085
I151
aI1086
aI1326
asI1085
(lp1086
I268
aI1207
asI1086
(lp1087
I1084
asI1087
(lp1088
I21
aI1387
asI1088
(lp1089
I1030
asI1089
(lp1090
I936
asI1090
(lp1091
I229
aI1482
asI1091
(lp1092
I184
asI1092
(lp1093
I132
aI1423
aI1696
asI1093
(lp1094
I983
asI1094
(lp1095
I423
asI1095
(lp1096
I1056
asI1096
(lp1097
I44
asI1097
(lp1098
I1043
asI1098
(lp1099
I40
asI1099
(lp1100
I323
aI1605
asI1100
(lp1101
I183
asI1101
(lp1102
I667
asI1102
(lp1103
I151
asI1103
(lp1104
I483
aI1453
asI1104
(lp1105
I0
asI1105
(lp1106
I703
aI1133
asI1106
(lp1107
I40
asI1107
(lp1108
I521
aI1123
aI1338
asI1108
(lp1109
I288
aI1164
asI1109
(lp1110
I377
aI1373
aI1415
asI1110
(lp1111
I748
asI1111
(lp1112
I21
asI1112
(lp1113
I6
asI1113
(lp1114
I962
asI1114
(lp1115
I415
asI1115
(lp1116
I1024
asI1116
(lp1117
I705
aI1678
asI1117
(lp1118
I109
aI1659
asI1118
(lp1119
I947
asI1119
(lp1120
I342
asI1120
(lp1121
I6
asI1121
(lp1122
I321
asI1122
(lp1123
I431
asI1123
(lp1124
I1107
asI1124
(lp1125
I184
asI1125
(lp1126
I109
asI1126
(lp1127
I33
asI1127
(lp1128
I335
asI1128
(lp1129
I424
asI1129
(lp1130
I331
aI1364
asI1130
(lp1131
I0
asI1131
(lp1132
I284
asI1132
(lp1133
I105
asI1133
(lp1134
I1105
asI1134
(lp1135
I605
asI1135
(lp1136
I726
asI1136
(lp1137
I976
asI1137
(lp1138
I87
asI1138
(lp1139
I103
asI1139
(lp1140
I472
asI1140
(lp1141
I627
aI1289
asI1141
(lp1142
I285
aI1201
asI1142
(lp1143
I482
asI1143
(lp1144
I243
aI1171
aI1496
asI1144
(lp1145
I128
asI1145
(lp1146
I0
asI1146
(lp1147
I302
asI1147
(lp1148
I798
asI1148
(lp1149
I413
aI1233
aI1446
aI1450
asI1149
(lp1150
I649
asI1150
(lp1151
I8
aI1681
asI1151
(lp1152
I912
asI1152
(lp1153
I771
aI1562
asI1153
(lp1154
I1026
asI1154
(lp1155
I914
asI1155
(lp1156
I1014
asI1156
(lp1157
I99
asI1157
(lp1158
I253
asI1158
(lp1159
I156
asI1159
(lp1160
I406
asI1160
(lp1161
I319
asI1161
(lp1162
I140
asI1162
(lp1163
I728
aI1699
asI1163
(lp1164
I579
aI1340
aI1422
asI1164
(lp1165
I1108
asI1165
(lp1166
I335
asI1166
(lp1167
I325
asI1167
(lp1168
I693
asI1168
(lp1169
I586
asI1169
(lp1170
I6
asI1170
(lp1171
I0
asI1171
(lp1172
I1143
asI1172
(lp1173
I442
asI1173
(lp1174
I155
asI1174
(lp1175
I887
aI1650
asI1175
(lp1176
I439
aI1669
asI1176
(lp1177
I50
asI1177
(lp1178
I333
asI1178
(lp1179
I40
asI1179
(lp1180
I422
asI1180
(lp1181
I429
asI1181
(lp1182
I6
aI1319
asI1182
(lp1183
I87
asI1183
(lp1184
I438
asI1184
(lp1185
I154
asI1185
(lp1186
I550
asI1186
(lp1187
I1030
asI1187
(lp1188
I852
asI1188
(lp1189
I812
aI1363
aI1420
asI1189
(lp1190
I1013
aI1660
asI1190
(lp1191
I195
asI1191
(lp1192
I430
asI1192
(lp1193
I73
asI1193
(lp1194
I40
asI1194
(lp1195
I212
asI1195
(lp1196
I6
asI1196
(lp1197
I678
asI1197
(lp1198
I138
asI1198
(lp1199
I4
asI1199
(lp1200
I833
asI1200
(lp1201
I58
asI1201
(lp1202
I1141
aI1244
asI1202
(lp1203
I476
asI1203
(lp1204
I665
asI1204
(lp1205
I482
aI1627
asI1205
(lp1206
I457
asI1206
(lp1207
I719
asI1207
(lp1208
I1085
asI1208
(lp1209
I526
asI1209
(lp1210
I668
asI1210
(lp1211
I638
asI1211
(lp1212
I513
asI1212
(lp1213
I886
asI1213
(lp1214
I18
asI1214
(lp1215
I138
asI1215
(lp1216
I622
asI1216
(lp1217
I139
asI1217
(lp1218
I50
asI1218
(lp1219
I583
aI1404
asI1219
(lp1220
I80
asI1220
(lp1221
I139
asI1221
(lp1222
I245
asI1222
(lp1223
I47
asI1223
(lp1224
I0
aI1443
aI1533
asI1224
(lp1225
I571
asI1225
(lp1226
I315
asI1226
(lp1227
I926
asI1227
(lp1228
I22
asI1228
(lp1229
I22
asI1229
(lp1230
I29
aI1267
asI1230
(lp1231
I82
asI1231
(lp1232
I226
asI1232
(lp1233
I452
aI1252
asI1233
(lp1234
I1148
asI1234
(lp1235
I138
asI1235
(lp1236
I861
asI1236
(lp1237
I71
asI1237
(lp1238
I11
asI1238
(lp1239
I73
asI1239
(lp1240
I678
asI1240
(lp1241
I40
asI1241
(lp1242
I963
aI1487
aI1671
asI1242
(lp1243
I499
asI1243
(lp1244
I187
asI1244
(lp1245
I1201
asI1245
(lp1246
I176
asI1246
(lp1247
I274
asI1247
(lp1248
I852
asI1248
(lp1249
I872
asI1249
(lp1250
I859
asI1250
(lp1251
I905
asI1251
(lp1252
I22
asI1252
(lp1253
I1232
asI1253
(lp1254
I19
asI1254
(lp1255
I6
asI1255
(lp1256
I505
aI1597
asI1256
(lp1257
I632
asI1257
(lp1258
I544
asI1258
(lp1259
I520
asI1259
(lp1260
I668
asI1260
(lp1261
I654
asI1261
(lp1262
I35
aI1630
asI1262
(lp1263
I414
aI1268
aI1382
aI1392
asI1263
(lp1264
I1064
asI1264
(lp1265
I18
asI1265
(lp1266
I561
asI1266
(lp1267
I6
asI1267
(lp1268
I1229
asI1268
(lp1269
I1262
asI1269
(lp1270
I105
asI1270
(lp1271
I21
asI1271
(lp1272
I27
asI1272
(lp1273
I416
asI1273
(lp1274
I554
asI1274
(lp1275
I6
asI1275
(lp1276
I16
asI1276
(lp1277
I487
asI1277
(lp1278
I8
asI1278
(lp1279
I3
asI1279
(lp1280
I555
asI1280
(lp1281
I132
asI1281
(lp1282
I459
asI1282
(lp1283
I335
asI1283
(lp1284
I27
asI1284
(lp1285
I17
asI1285
(lp1286
I268
asI1286
(lp1287
I16
asI1287
(lp1288
I912
asI1288
(lp1289
I6
asI1289
(lp1290
I1140
asI1290
(lp1291
I158
asI1291
(lp1292
I557
asI1292
(lp1293
I160
asI1293
(lp1294
I16
asI1294
(lp1295
I87
asI1295
(lp1296
I331
asI1296
(lp1297
I657
aI1557
asI1297
(lp1298
I186
aI1682
asI1298
(lp1299
I45
asI1299
(lp1300
I942
asI1300
(lp1301
I190
asI1301
(lp1302
I938
aI1536
asI1302
(lp1303
I6
asI1303
(lp1304
I688
asI1304
(lp1305
I22
asI1305
(lp1306
I109
asI1306
(lp1307
I480
asI1307
(lp1308
I151
aI1378
asI1308
(lp1309
I222
asI1309
(lp1310
I156
asI1310
(lp1311
I897
aI1429
aI1683
asI1311
(lp1312
I0
aI1622
asI1312
(lp1313
I912
asI1313
(lp1314
I310
asI1314
(lp1315
I79
asI1315
(lp1316
I1020
asI1316
(lp1317
I155
asI1317
(lp1318
I159
asI1318
(lp1319
I253
asI1319
(lp1320
I1181
asI1320
(lp1321
I828
asI1321
(lp1322
I420
asI1322
(lp1323
I939
asI1323
(lp1324
I16
asI1324
(lp1325
I374
asI1325
(lp1326
I748
asI1326
(lp1327
I1084
asI1327
(lp1328
I95
asI1328
(lp1329
I4
asI1329
(lp1330
I128
asI1330
(lp1331
I168
asI1331
(lp1332
I510
asI1332
(lp1333
I16
asI1333
(lp1334
I10
asI1334
(lp1335
I0
asI1335
(lp1336
I242
aI1575
asI1336
(lp1337
I1043
asI1337
(lp1338
I852
asI1338
(lp1339
I1107
asI1339
(lp1340
I40
asI1340
(lp1341
I1163
asI1341
(lp1342
I195
asI1342
(lp1343
I282
asI1343
(lp1344
I38
asI1344
(lp1345
I691
asI1345
(lp1346
I0
asI1346
(lp1347
I250
asI1347
(lp1348
I580
asI1348
(lp1349
I955
asI1349
(lp1350
I506
asI1350
(lp1351
I95
asI1351
(lp1352
I517
aI1500
asI1352
(lp1353
I98
asI1353
(lp1354
I151
asI1354
(lp1355
I437
asI1355
(lp1356
I350
asI1356
(lp1357
I154
aI1503
asI1357
(lp1358
I333
asI1358
(lp1359
I261
asI1359
(lp1360
I813
asI1360
(lp1361
I855
asI1361
(lp1362
I385
asI1362
(lp1363
I634
asI1363
(lp1364
I1188
asI1364
(lp1365
I1129
asI1365
(lp1366
I1006
asI1366
(lp1367
I918
asI1367
(lp1368
I843
asI1368
(lp1369
I566
asI1369
(lp1370
I713
asI1370
(lp1371
I299
aI1452
asI1371
(lp1372
I105
asI1372
(lp1373
I193
asI1373
(lp1374
I1109
aI1509
asI1374
(lp1375
I0
aI1564
asI1375
(lp1376
I3
asI1376
(lp1377
I79
asI1377
(lp1378
I428
asI1378
(lp1379
I1307
asI1379
(lp1380
I21
asI1380
(lp1381
I19
asI1381
(lp1382
I27
asI1382
(lp1383
I1262
asI1383
(lp1384
I78
asI1384
(lp1385
I383
asI1385
(lp1386
I970
asI1386
(lp1387
I210
asI1387
(lp1388
I1087
asI1388
(lp1389
I0
asI1389
(lp1390
I397
asI1390
(lp1391
I269
asI1391
(lp1392
I156
asI1392
(lp1393
I1262
asI1393
(lp1394
I593
asI1394
(lp1395
I8
asI1395
(lp1396
I253
aI1514
asI1396
(lp1397
I420
asI1397
(lp1398
I1057
asI1398
(lp1399
I596
asI1399
(lp1400
I1003
asI1400
(lp1401
I0
asI1401
(lp1402
I253
asI1402
(lp1403
I163
asI1403
(lp1404
I604
asI1404
(lp1405
I1218
asI1405
(lp1406
I74
asI1406
(lp1407
I185
asI1407
(lp1408
I140
aI1476
aI1646
asI1408
(lp1409
I615
asI1409
(lp1410
I0
asI1410
(lp1411
I7
asI1411
(lp1412
I0
asI1412
(lp1413
I816
asI1413
(lp1414
I599
asI1414
(lp1415
I409
asI1415
(lp1416
I1109
asI1416
(lp1417
I242
asI1417
(lp1418
I480
asI1418
(lp1419
I1068
asI1419
(lp1420
I82
asI1420
(lp1421
I1188
asI1421
(lp1422
I249
asI1422
(lp1423
I1163
asI1423
(lp1424
I1092
asI1424
(lp1425
I16
asI1425
(lp1426
I151
asI1426
(lp1427
I517
aI1697
asI1427
(lp1428
I111
asI1428
(lp1429
I485
asI1429
(lp1430
I1310
asI1430
(lp1431
I501
asI1431
(lp1432
I4
asI1432
(lp1433
I742
asI1433
(lp1434
I21
asI1434
(lp1435
I747
asI1435
(lp1436
I185
asI1436
(lp1437
I1
aI1569
aI1593
asI1437
(lp1438
I116
asI1438
(lp1439
I776
asI1439
(lp1440
I16
asI1440
(lp1441
I705
asI1441
(lp1442
I663
asI1442
(lp1443
I678
asI1443
(lp1444
I1223
asI1444
(lp1445
I459
asI1445
(lp1446
I499
asI1446
(lp1447
I1148
asI1447
(lp1448
I0
asI1448
(lp1449
I0
asI1449
(lp1450
I383
asI1450
(lp1451
I1148
asI1451
(lp1452
I114
asI1452
(lp1453
I1370
asI1453
(lp1454
I1103
asI1454
(lp1455
I185
asI1455
(lp1456
I20
asI1456
(lp1457
I16
aI1609
asI1457
(lp1458
I0
asI1458
(lp1459
I28
asI1459
(lp1460
I184
asI1460
(lp1461
I6
asI1461
(lp1462
I938
asI1462
(lp1463
I979
asI1463
(lp1464
I469
asI1464
(lp1465
I87
asI1465
(lp1466
I138
asI1466
(lp1467
I98
asI1467
(lp1468
I26
asI1468
(lp1469
I331
asI1469
(lp1470
I87
asI1470
(lp1471
I19
asI1471
(lp1472
I1
asI1472
(lp1473
I143
asI1473
(lp1474
I719
asI1474
(lp1475
I702
asI1475
(lp1476
I771
asI1476
(lp1477
I1407
asI1477
(lp1478
I936
asI1478
(lp1479
I48
asI1479
(lp1480
I87
asI1480
(lp1481
I981
asI1481
(lp1482
I880
asI1482
(lp1483
I1090
asI1483
(lp1484
I19
asI1484
(lp1485
I242
asI1485
(lp1486
I19
asI1486
(lp1487
I678
asI1487
(lp1488
I1241
asI1488
(lp1489
I74
asI1489
(lp1490
I22
asI1490
(lp1491
I449
asI1491
(lp1492
I461
asI1492
(lp1493
I139
asI1493
(lp1494
I180
asI1494
(lp1495
I81
asI1495
(lp1496
I882
asI1496
(lp1497
I1143
asI1497
(lp1498
I586
asI1498
(lp1499
I974
asI1499
(lp1500
I776
asI1500
(lp1501
I1351
asI1501
(lp1502
I274
aI1638
asI1502
(lp1503
I138
asI1503
(lp1504
I1356
asI1504
(lp1505
I1054
asI1505
(lp1506
I18
asI1506
(lp1507
I151
asI1507
(lp1508
I17
asI1508
(lp1509
I813
asI1509
(lp1510
I1373
asI1510
(lp1511
I16
asI1511
(lp1512
I12
asI1512
(lp1513
I251
asI1513
(lp1514
I268
asI1514
(lp1515
I1395
asI1515
(lp1516
I938
asI1516
(lp1517
I663
asI1517
(lp1518
I498
asI1518
(lp1519
I141
asI1519
(lp1520
I455
asI1520
(lp1521
I1063
asI1521
(lp1522
I380
asI1522
(lp1523
I291
asI1523
(lp1524
I828
asI1524
(lp1525
I169
asI1525
(lp1526
I136
asI1526
(lp1527
I40
asI1527
(lp1528
I623
asI1528
(lp1529
I651
asI1529
(lp1530
I7
aI1662
asI1530
(lp1531
I331
asI1531
(lp1532
I825
asI1532
(lp1533
I16
asI1533
(lp1534
I1223
asI1534
(lp1535
I141
asI1535
(lp1536
I538
asI1536
(lp1537
I1301
asI1537
(lp1538
I389
asI1538
(lp1539
I151
asI1539
(lp1540
I651
aI1629
asI1540
(lp1541
I233
asI1541
(lp1542
I523
asI1542
(lp1543
I455
asI1543
(lp1544
I8
asI1544
(lp1545
I6
asI1545
(lp1546
I40
asI1546
(lp1547
I0
asI1547
(lp1548
I80
asI1548
(lp1549
I43
asI1549
(lp1550
I117
asI1550
(lp1551
I654
asI1551
(lp1552
I274
asI1552
(lp1553
I21
asI1553
(lp1554
I21
asI1554
(lp1555
I7
asI1555
(lp1556
I828
asI1556
(lp1557
I49
asI1557
(lp1558
I1296
asI1558
(lp1559
I6
asI1559
(lp1560
I170
asI1560
(lp1561
I105
asI1561
(lp1562
I134
asI1562
(lp1563
I1152
asI1563
(lp1564
I39
asI1564
(lp1565
I1374
asI1565
(lp1566
I40
asI1566
(lp1567
I126
asI1567
(lp1568
I742
asI1568
(lp1569
I593
asI1569
(lp1570
I1436
asI1570
(lp1571
I499
asI1571
(lp1572
I294
asI1572
(lp1573
I13
asI1573
(lp1574
I195
asI1574
(lp1575
I874
asI1575
(lp1576
I1335
aI1581
asI1576
(lp1577
I186
asI1577
(lp1578
I562
asI1578
(lp1579
I101
asI1579
(lp1580
I854
asI1580
(lp1581
I634
asI1581
(lp1582
I1575
asI1582
(lp1583
I11
asI1583
(lp1584
I280
asI1584
(lp1585
I555
asI1585
(lp1586
I633
asI1586
(lp1587
I4
asI1587
(lp1588
I107
asI1588
(lp1589
I598
asI1589
(lp1590
I273
asI1590
(lp1591
I734
asI1591
(lp1592
I27
asI1592
(lp1593
I98
asI1593
(lp1594
I1436
asI1594
(lp1595
I947
asI1595
(lp1596
I431
asI1596
(lp1597
I105
asI1597
(lp1598
I1255
asI1598
(lp1599
I116
asI1599
(lp1600
I71
asI1600
(lp1601
I982
asI1601
(lp1602
I118
asI1602
(lp1603
I305
asI1603
(lp1604
I175
asI1604
(lp1605
I15
asI1605
(lp1606
I1099
asI1606
(lp1607
I383
asI1607
(lp1608
I163
asI1608
(lp1609
I663
asI1609
(lp1610
I1456
asI1610
(lp1611
I596
asI1611
(lp1612
I67
asI1612
(lp1613
I173
asI1613
(lp1614
I688
asI1614
(lp1615
I302
asI1615
(lp1616
I147
asI1616
(lp1617
I1
asI1617
(lp1618
I70
asI1618
(lp1619
I4
asI1619
(lp1620
I105
asI1620
(lp1621
I227
asI1621
(lp1622
I249
asI1622
(lp1623
I1311
asI1623
(lp1624
I45
asI1624
(lp1625
I750
asI1625
(lp1626
I1006
asI1626
(lp1627
I195
asI1627
(lp1628
I1204
aI1658
asI1628
(lp1629
I925
asI1629
(lp1630
I1539
aI1643
asI1630
(lp1631
I1261
asI1631
(lp1632
I217
asI1632
(lp1633
I586
asI1633
(lp1634
I792
asI1634
(lp1635
I499
asI1635
(lp1636
I95
asI1636
(lp1637
I421
asI1637
(lp1638
I205
asI1638
(lp1639
I1501
asI1639
(lp1640
I105
asI1640
(lp1641
I0
asI1641
(lp1642
I837
asI1642
(lp1643
I166
asI1643
(lp1644
I1629
asI1644
(lp1645
I16
asI1645
(lp1646
I538
asI1646
(lp1647
I1407
asI1647
(lp1648
I0
asI1648
(lp1649
I748
asI1649
(lp1650
I96
asI1650
(lp1651
I1174
asI1651
(lp1652
I728
asI1652
(lp1653
I197
asI1653
(lp1654
I352
asI1654
(lp1655
I7
asI1655
(lp1656
I1006
asI1656
(lp1657
I566
asI1657
(lp1658
I470
asI1658
(lp1659
I1627
asI1659
(lp1660
I1117
asI1660
(lp1661
I1189
asI1661
(lp1662
I369
asI1662
(lp1663
I1529
asI1663
(lp1664
I96
asI1664
(lp1665
I526
asI1665
(lp1666
I623
asI1666
(lp1667
I189
asI1667
(lp1668
I187
asI1668
(lp1669
I1041
asI1669
(lp1670
I1175
asI1670
(lp1671
I6
asI1671
(lp1672
I1241
asI1672
(lp1673
I325
asI1673
(lp1674
I12
asI1674
(lp1675
I8
asI1675
(lp1676
I46
asI1676
(lp1677
I138
asI1677
(lp1678
I651
asI1678
(lp1679
I1116
asI1679
(lp1680
I912
asI1680
(lp1681
I230
asI1681
(lp1682
I1150
asI1682
(lp1683
I1297
asI1683
(lp1684
I1310
asI1684
(lp1685
I166
asI1685
(lp1686
I1057
asI1686
(lp1687
I619
asI1687
(lp1688
I16
asI1688
(lp1689
I493
asI1689
(lp1690
I676
asI1690
(lp1691
I221
asI1691
(lp1692
I957
asI1692
(lp1693
I167
asI1693
(lp1694
I8
asI1694
(lp1695
I0
asI1695
(lp1696
I366
asI1696
(lp1697
I1092
asI1697
(lp1698
I1426
asI1698
(lp1699
I105
asI1699
(lp1700
I1162
as.